(lp1
(Vmt snowpocalypse near simmons
(lp2
Vmt simmons people getting told get cops apparently
p3
aVhate debbie downer weak spot forms inside snow
p4
aVoh live little fun
p5
aVm paranoid anyways haven climbed lol
p6
aVanother angle http imgur com wvminrz png
p7
aVpost r woahdude
p8
aS'2015,02,11'
I93
tp9
a(Vmit undergrad students collect worth bitcoin mit bitcoin project deadline nov nd
(lp10
Vdoesn like free money
p11
aVmuch free payment surveys data tracking
p12
aVll pay paypal someone btc
p13
aVpay
p14
aVanyone mit doesn care send coins way
p15
aVdeleted
p16
aVmay done poor job promoting distribution m sure
p17
aVgiven directors media lab helping study unlike
p18
aVsomebody want tip mit student newspaper
p19
aVcash quick oh wait late http bl
p20
aVcurrently worth bitcoin matter price
p21
aVactually received bitcoin year ago d worth around
p22
aVright thanks correcting
p23
aVsounds like someone got burned
p24
aVvirtual sense booked marked bitcoinity page first fo
p25
aVfollowed bitcoin since none new th
p26
aVtired troll tired
p27
aVread near unanimous mocking exhibited comment thread
p28
aVbubbles happen markets re leveling maybe bear
p29
aS'2014,10,29'
I48
tp30
a(Vmit football beat husson move onto ncaa diii ro let go engineers keep historical season alive
(lp31
Vassume game held wesley college
p32
aVaccording bracket tbd http www ncaa com interactive bracket
p33
aVmiller stadium dover del
p34
aS'2014,11,22'
I48
tp35
a(Vletter boston mayor asking mit determine flame throwers could used melt snow x post r boston
(lp36
Vmit president responded salt would work better http slice mit edu
p37
aVsurely wasn first time salt suggested d expected salt
p38
aVwell fire generates heat heat melts snow see anything wrong
p39
aVrussia used surplus mig jet engines fixed trucks way plows
p40
aVmbta http www boston com news local massachusetts articles
p41
aS'2015,02,04'
I46
tp42
a(Vone mit funniest alums passed away today rip tom magliozzi
(lp43
Vhoping wake one mornings ingenious memorial fo
p44
aVparents weren totally sold going mit far home fu
p45
aVremember distinctly inspired found alums
p46
aVnoooooooooooooooo
p47
aVsad hear news wonder tribute form
p48
aS'2014,11,03'
I47
tp49
a(Vwalter lewin ocw lectures taken sexual harrassment allegation
(lp50
Vedit actually add commentary m confused ch
p51
aVcouple thoughts haven really flushed yet m totally
p52
aVkeeping videos anything sexual haras
p53
aVwell m saying m sure feel one hand
p54
aVhaven looked way understand taking goo
p55
aVkeep saying ok lewin harassed women
p56
aVline thinking let say scientific community decided
p57
aVexactly u slippy said also subtle difference c
p58
aVthink point sending message perpetrator th
p59
aVdeleted
p60
aVparallel neither wahlberg write direct movies
p61
aVfair wahlberg good actor
p62
aVcompletely disagree think something bad necessary means
p63
aVquite see connect removing learning resources sexua
p64
aVparticularly removing lectures punishes people wou
p65
aVgood sort thing really tarnish institute reputation
p66
aVshit still listen kanye music even though like guy
p67
aVexactly allegedly
p68
aVonline sexual harrasment yea sounded like raped someone
p69
aVapparently sketchy twitter messages account suspe
p70
aVmakes sense even makes sense take
p71
aVmit officially released news confirmed found
p72
aVspecific
p73
aVdeleted
p74
aVpossible find hard believe unlikely review
p75
aVdeleted
p76
aVshoot fantastic lectures leaving work isn condoning
p77
aVhope mit doesn remove anything related quantum mechanics due r
p78
aVhighly skeptical true anyone download lect
p79
aVfind http videolectures net walter h g lewin
p80
aS'2014,12,08'
I43
tp81
a(Vmit admits early action
(lp82
Vdeferred expecting sad upset reason
p83
aVcurrent student deferred admitted ra deferral means m
p84
aVve never comforted butt stallion thanks
p85
aVdeferred admitted regular action think much abo
p86
aVdeferred accepted know going focus o
p87
aVgot d get rd apps lol
p88
aVgot congrats
p89
aVaccepted happy
p90
aVdamn wish knew like happy
p91
aVdeleted
p92
aVoh please
p93
aVvisit cpw pfw possible re blast give
p94
aVmit caltech dumb hate much
p95
aVbelieve stephen hawking much smarter disagrees held posi
p96
aVsounds like somebody didn get mit
p97
aVu foxlover simply ethereal plane beyond comprehension
p98
aVgood point
p99
aVdeleted
p100
aVll make back first three hours first internship
p101
aVagree foxluver point entirety also d like point c
p102
aVaren unpaid go mit caltech
p103
aVfair aren unpaid even go state school
p104
aVstatement internships correct based research
p105
aVdeferred thought d lose hope looking low admit rate def
p106
aVremember feeling d describe empty expecting sa
p107
aVback age deferred well got rejected
p108
aVhi luo know scioly org d anyways got mit
p109
aVyay congratulations username scioly see soon
p110
aVoh m active probably know pretty much exclus
p111
aVcourse merrier sure get touch h
p112
aVscience olympiad something high school students really inte
p113
aVyes http soinc org wanted still want give back
p114
aVanyone wants talk shoot pm deferred ea back m c
p115
aVgot deferred actually bit irritated flat denial would
p116
aVgraduated high school mit dream school deferred
p117
aVstory kept edge ending ambiguous get o
p118
aVyeah finished fifth semester
p119
aS'2014,12,13'
I43
tp120
a(Vmit get act together m nervous
(lp121
Vfinally open view rejection letter without trouble
p122
aVrejected dejected still wish got know feels lik
p123
aVright m surprised m still kinda bummed
p124
aVcompletely convinced wouldn get past months fe
p125
aVdepending want study lot people way way better
p126
aVthanks advice m already mit trying grad
p127
aVdidn meche cheme environmental someone else might
p128
aVidk man happiest part knew never take anoth
p129
aVthread blog http mitadmissions org blogs entry open thread
p130
aVirony
p131
aS''
aS'2015,03,14'
I39
tp132
a(Vmit football team great
(lp133
Vncaa team mit won nationals know individual competitors
p134
aVmit athletics http mitathletics com information excellence nationalch
p135
aVlooks like highest ncaa finish mit history sigh hope something co
p136
aS'2014,11,23'
I36
tp137
a(Vone fun promise onion best stories mit
(lS'2014,08,07'
I32
tp138
a(Vsale mit flea apparently first time
(lp139
Vsign taped say
p140
aVinsert monkey monkey cannot procured substitute astronaut
p141
aVsell time
p142
aVwait wasn sale dayton hamvention flea
p143
aVmuch listed
p144
aVhttp www universalhub com strap dozen estes rockets
p145
aS'2014,05,19'
I29
tp146
a(Vnext built three story slide cpw
(lp147
Vglad see next make still going strong
p148
aVyup never miter saw power drills gotten much use d
p149
aS'2015,04,13'
I31
tp150
a(Vwish could gotten know better
(lp151
Vhttp tech mit edu v n wang html
p152
aVthank context terrible
p153
aVstill september even
p154
aS'2014,09,24'
I31
tp155
a(Vbanner building
(lp156
Vdate birth death phoebe wang
p157
aVthink dates make sense
p158
aVyes
p159
aS'2014,09,26'
I31
tp160
a(Vvariation brass rat coffee table posted months ago x post r woodworking
(lp161
Vmonths ago posted album http imgur com g m brass r
p162
aVreally like variation meshing two histories love col
p163
aVawesome
p164
aVo
aS'2014,08,18'
I30
tp165
a(Vboston globe discovers mit anne hunter list
(lp166
Vanne list fantastic resource ve discovered interns full time h
p167
aVmean asking full stack mobile app ninja isn descriptive enough
p168
aVhaha exactly writing job descriptions like things life y
p169
aVmean asking full stack mobile app ninja isn descriptive en
p170
aVconversely current job result posting thesis title abstr
p171
aVsad day anne retires runs shit
p172
aS'2014,10,22'
I29
tp173
a(Vcause death professor seth teller released professor seth teller death last tuesday ruled suicide
(lp174
Vsad news mental health services support faculty
p175
aVm sure mit medical would provide support anyone associated mit
p176
aVrip
p177
aS'2014,07,12'
I27
tp178
a(Vannouncing mit bitcoin project btc every undergraduate student
(lp179
Vlove initiative wish still mit
p180
aVwant free kind money couldn done years ago
p181
aVfree kind money actually fantastic money
p182
aVway thanks
p183
aVtip bits confirmed collected u monkeymand wh
p184
aVstudents soon students interested part time work
p185
aS'2014,04,29'
I26
tp186
a(Vmit alumni students dominate forbes lists
(lS'2015,01,08'
I28
tp187
a(Vchristina tournant mit freshman medical leave died
(lp188
Vtwo lives cut way short week
p189
aVve received many emails mit presidents deaths students
p190
aVdeath apparently suicide case still investi
p191
aVnews tough hear went voluntary medical leave though
p192
aVpast mit swept people medical leave rug m glad
p193
aVsad felt like two never taken step
p194
aVfeel re enabling copycat suicides
p195
aVgiving ton attention publicizing everywhere suicide happen
p196
aVmean whatever remembrance ceremony host kinda closest
p197
aVm sorry meant agree need talk ment
p198
aVdeleted
p199
aVplenty things could could add therapists
p200
aVdeleted
p201
aVagree last point frustrates admini
p202
aVre releasing specific details though compare place like
p203
aVdeleted
p204
aVspecific method suicide
p205
aVdeleted
p206
aVtech isn run mit administration though cases
p207
aVdeleted
p208
aVyeah know tech editors thinking good call
p209
aVunfortunately alternative problem goes unacknowledged
p210
aS'2015,03,06'
I27
tp211
a(Vlike mit
(lp212
Vslept less game dining halls re good stayed
p213
aVyeah able cook freshman year one reasons
p214
aVdining halls apparently mit changed providers recently
p215
aVseriousness never heard student say lived din
p216
aVprevious system normal cafeteria time normal pric
p217
aVagree points though ive found mccormick decent food
p218
aVfunny mention flame war thing hadn long time
p219
aVyeah perfect example cool kids making new threads bec
p220
aVlack guidance describe something expect q
p221
aVregarding guidance mileage may vary mit plentiful guidance resour
p222
aVlast point least significant guess really persona
p223
aVnever forget great spam war
p224
aVanyone seen pledge pin
p225
aVve noticed flame war thing east side dorms moved west
p226
aVbad culture overworking especially certain dorms co
p227
aVyup basically main dislike mit m currently sophomore
p228
aVsee peer pressure could make overwork peopl
p229
aVmember class confirm feel true
p230
aVclassic freshman stating existence
p231
aVwould like ask topic question mind types
p232
aVsmart way take girs aren strong suit
p233
aVreally enjoyed bonus got better understanding o
p234
aVpiggyback maestro usually girs hass freshman fall normally
p235
aVneed classical mechanics electricity ma
p236
aVyes saying fair amount
p237
aVpersonal advice would get bio way people
p238
aVyeah one freshmen hall describing much
p239
aVyeah design class silly also last
p240
aVoh man took awesome back
p241
aVwait thought mit didn take ap credit
p242
aVre stringent schools take
p243
aVtrue elite colleges
p244
aVtalk mental health implications going mit p
p245
aVexpected work hard time always won free ti
p246
aVsometimes mit subcultures annoying shit lot elitism coc
p247
aVlove put thanks response want ask ihtfp mea
p248
aVeast west nonsense ll understand better spend time ar
p249
aVwow buddy know say know
p250
aVtake personally get rejection letter way q
p251
aVadmit little bit truth east west nonsense ve lived
p252
aVyears undergrad entire professional life thus far
p253
aVgraduate student perspective feel like undergrad research
p254
aVagree urop work rarely interesting many undergrads unenth
p255
aVagree failure level graduate students pis ma
p256
aVurops valuable getting recommendation letters super r
p257
aVsay super rare get close professor
p258
aVmajor computational materials science let know
p259
aVthink harsh honest assessment counterpoint
p260
aValso grad student ve mentored urops agree su
p261
aVlot rsi students including end coming mit undergrad
p262
aVunderstand re saying realize urops juggle lo
p263
aVfellow ph d student course hiring urop tricky thing
p264
aVdisagree know least current former course urops amazin
p265
aVfair enough perhaps varies department sentiment shared lo
p266
aVve also mixed experiences urops ve really worked eecs
p267
aVexactly problem though load grad students like
p268
aVll blunt like mit today become really
p269
aVpe swimming requirement
p270
aVisn least remotely good
p271
aVmileage clearly varies think pe requirement brilliant ar
p272
aVdeleted
p273
aVhaven found hasses interested sucks id
p274
aVmuch pains suggest given major isn usu
p275
aVwell guess could really wanted know lot
p276
aS'2015,02,25'
I24
tp277
a(Vprofessor seth teller dies age
(lp278
Vprofessor teller amazing lecturer brilliant roboticist good
p279
aVdamn great guy reason got robotics started
p280
aVsad knew little bit anyone know died
p281
aVhear accident apparently healthy otherwise took c
p282
aVtech reported death suicide http tech mit edu v n suicid
p283
aVfuck awesome professor took classes year b
p284
aVrip seth teller condolences family friends colleagues students
p285
aS'2014,07,02'
I23
tp286
a(Vlook fabio everybody
(lp287
Vdammit refer fabio everyone thinks
p288
aVdescription person thanks info
p289
aVlook like ve random hanging around e drinking th
p290
aVnext time drinking call campus police even
p291
aVagree m trying convince students re little sk
p292
aVpicture http imgur com wpw gsq jpg work raided lab
p293
aVfollowed tip someone sent via pm fabio guy showing u
p294
aS'2015,04,13'
I22
tp295
a(Vwalk flu shots today pm student center protect contribute herd immunity
(lS'2014,10,16'
I23
tp296
a(Vmatthew nehring freshman east campus dies
(lp297
Vthird mit suicide far year yikes
p298
aVwent highschool matthew really nice kid also quiet one o
p299
aVrip matthew sorry go soon
p300
aS''
aS'2015,03,01'
I21
tp301
a(Vcomplainant walter lewin sexual harassment case comes forward
(lS'2015,01,25'
I23
tp302
a(Vmit graduate dr leslie dewan power nuclear waste
(lS'2014,12,21'
I24
tp303
a(Vll quad aerial views mit presentations
(lS'2014,12,12'
I25
tp304
a(Vhappening
(lp305
Vliters hexane spilled bldg
p306
aVminor spill common solvent elicited campus wide alert things c
p307
aVwant come wrong technically speaking minor spill
p308
aVdisagreeing response inside especially spill
p309
aVmarathon bombing officer collier shooting prompted mit revamp
p310
aVflammable chemical think evacuation abundance caut
p311
aVapparently hazardous material spill area useful messages
p312
aVokay sent followup actually area
p313
aVhttps twitter com mitpolice status chemical spill bu
p314
aVmitalert hazardous materials emergency reported stay clear bl
p315
aVhazardous materials emergency according person sitting next
p316
aVdef probably chemical spill edit contained
p317
aVdidn get alert
p318
aVgood article friday tech talking chemical spill
p319
aS'2014,10,07'
I21
tp320
a(Vaggressive advertising much spotted outside
(lp321
Vtear one postering rules one poster per thi
p322
aVsee http web mit edu asa publicity public advertising space html fu
p323
aVwow tacky
p324
aVmath thing re probably going mit
p325
aVkeep try talk asa threatening wi
p326
aVthink d place student email think d appreci
p327
aVthink d place especially since easy contact inf
p328
aVemail asa essentially helping asa job
p329
aVsignet tutor bring ceo attention thank
p330
aS'2015,02,23'
I22
tp331
a(Vchi phi alumni house corp president says drunk female guests gravest threat fraternities
(lp332
Varticle admits draw flack m surprised taken
p333
aVguys stuff pretty odd http www forbes com sites billfrez
p334
aVodd seemed pretty reasonable lower age ppl won
p335
aVagreed harm reduction approach generally better prohibition
p336
aVwell helloooo germany shocked inability complete grown
p337
aVarticle almost immediately deleted forbes com c
p338
aVfact fired article mind boggling
p339
aVfired source
p340
aVhttp www nydailynews com news national forbes columnist sacked piece drunk
p341
aVthanks
p342
aVregular employee forbes occasional blog contributor
p343
aVsounds like latter totally see asked write
p344
aS''
aVthink expressing opinion opinion writer good reason
p345
aVm ashamed mit name attached
p346
aVtaken anyone article link
p347
aS'2014,09,24'
I21
tp348
a(Vkeep eyes skies pi day
(lp349
Vobject drones wouldn fly upper reaches atmosphere
p350
aVmeans totally missed point video unless course
p351
aVkidding opening great dome
p352
aVsoo applying already
p353
aVm alum actually class
p354
aVobviously joking
p355
aVresist pi day celebrate tau day instead
p356
aVmeh resist pi embrace tau celebrate days heck
p357
aS'2015,03,06'
I21
tp358
a(Vmit alumna course sport illustrated lovely lady day
(lp359
Vinterview though scroll bit http www si com extr
p360
aVcrush elon worked tesla
p361
aVcongrats rachel wish hadn sicced photoshop demon
p362
aS'2014,12,03'
I20
tp363
a(Vmit announces steps intended minimize unwanted sexual behavior
(lS'2014,10,27'
I22
tp364
a(Vmit offers dropbox business unlimited space file recovery version history mit community
(lp365
Vdeleted
p366
aVmit dropbox business joined students faculty staff wi
p367
aS'2014,08,22'
I22
tp368
a(Vdear currently recorded
(lp369
Vsounds like good opportunity get friends together walk circl
p370
aVfyi also video recorded virtually times ca
p371
aS'2015,04,08'
I19
tp372
a(Veveryone angry
(lp373
Vyear d good starting point people know far back
p374
aVhi name keisuke m senior graduate ve lived senior
p375
aVnumerous instances administration simply overriding student opini
p376
aVspecifically dorm security mind previous committee report qu
p377
aVre bexley administration done got report ve
p378
aVyears part mit community role
p379
aVone remember implementation rlads http tech mi
p380
aVbexley given late notice planned move
p381
aVlot effort recently homogenize lot effort re
p382
aVgraduate student entering mit next year m curious read
p383
aVhttps medium com brandontle dear president reif fuck c
p384
aVworth time neither explains aspects culture
p385
aVactually think way article written really illuminates
p386
aVgraduated people aren things like
p387
aVculture isn disappearing destroying bexley becau
p388
aVhey throwaway u monkeymang honestly idea r
p389
aVthread linked another place reddit r berkeley
p390
aVpeople really like bitch people making noise
p391
aVculture shift hard many people understand o
p392
aVyeah senior house years left mit work startup
p393
aVwait head veep alumni list received used includ
p394
aVthink make east coast year appreciate
p395
aVyear also stopped alumni hosting policy alums hou
p396
aValmost traffic sh alum list aren missing much
p397
aVthanks taking time respond fellow alum m
p398
aS'2015,04,06'
I18
tp399
a(Vusps honors mit first black graduate
(lS'2015,02,12'
I19
tp400
a(Vcanada goose jackets mit campus come
(lp401
Vplease disturb jackets passing migratory
p402
aVlets real lot wealthy people mit ycomb probably hands
p403
aVgirlfriend time gifted one liked jacket bought
p404
aVplease let real thing prays
p405
aVever since reading ve seen everywhere literally walked p
p406
aVwant actually even wear jacket sweater th
p407
aVfound post wondering thing months
p408
aVhaha yeah thought
p409
aVgot mine christmas
p410
aVhonest way got around owning really nice heavy winter jacket
p411
aS'2015,01,26'
I20
tp412
a(Vscience ama series anant agarwal m teaching mit x circuits electronics working bring courses like x students around world role ceo edx ask anything science
(lS'2015,01,26'
I22
tp413
a(Vmit mystery hunt starts friday january pm est
(lp414
Vseventeen minutes longer d wait anyone tha
p415
aS'2015,01,14'
I18
tp416
a(Vtell story
(lp417
Vthings pop head pulling nighter team
p418
aVgot bachelor things remember
p419
aVreally distill single story thing love
p420
aVwant hardk re
p421
aVdamn isn university cool
p422
aVwalking lab seeing fanciest cappuccino machine life
p423
aVactually represents mit pretty well finding good coffee beans deve
p424
aVstill sticks people know limits people
p425
aVcongratulations know mit admissions blog stories mit students
p426
aVcongratulations
p427
aVve asked question many times since graduated always say m
p428
aS'2014,12,14'
I16
tp429
a(Vhouse effort would completely dismantle patriot act co sponsored mit alum
(lp430
Valso thinks climate change isn real
p431
aS'2015,03,25'
I18
tp432
a(Vsteer roast senior house contrary popular belief re scary filmed andrei ivanov
(lp433
Vlet honest guys contrary popular belief go w
p434
aVdeleted
p435
aVoh friends people lived senior house
p436
aS'2014,05,25'
I17
tp437
a(Vus cto megan smith chosen commencement speaker
(lS'2014,12,11'
I16
tp438
a(Veast campus roller coaster
(lS'2014,08,25'
I17
tp439
a(Vtwitter gives mit researchers access every single public tweet verge
(lS'2014,10,06'
I14
tp440
a(Vdepression urop
(lp441
Vplease reach help go adviser take adva
p442
aVconsider taking break school starts change day little bit
p443
aVsomeone supervises urops would want come forward talk
p444
aVecho everyone sentiments important health work second
p445
aVshitty excuse key situation urop commu
p446
aVthink many people feeling depressed feel way playin
p447
aVdefinitely shitty excuse talking hr seems reasonable
p448
aVbest way tell pi urop coordinator mental health
p449
aVhttp together mit edu
p450
aVwould suggest talking student support services re
p451
aS'2014,08,19'
I15
tp452
a(Vfollow graduation invocation
(lp453
Vawesome thanks posting
p454
aS'2014,05,09'
I17
tp455
a(Vpiano drop pm april baker house
(lp456
Vphoto missed https px com photo mit
p457
aVthanks photo
p458
aS'2015,04,22'
I14
tp459
a(Videa m
(lp460
Vdeep breath relax know re feeling overwhelmed right perfe
p461
aVexcellent true props transmogrifyme mit great support staff
p462
aVhi welcome term similar first term mit trust ve
p463
aVgood know tute hasn changed feel total panic fir
p464
aVm sure everyone little worried m recitation ass
p465
aVthings basic might want try outside resources e g khan aca
p466
aVworry m sophomore friend last semester th
p467
aVm sure nearly bad seems right re probably feelin
p468
aVidea m summarize years mit
p469
aVst nd day class give time
p470
aVregardless went high school assuming didn buy y
p471
aVsolid advice ll add bit grad
p472
aVsince everyone seems covering kind high level aspects po
p473
aVsit still go talk doctor
p474
aVeverything calculus makes sense history major
p475
aVdoesn even go freshmen mit majors troll
p476
aVjanitor mit
p477
aS'2014,09,04'
I13
tp478
a(Vnightstand made discarded mit hockey sticks
(lp479
Vmit still using wooden sticks
p480
aVaccording builder ve moved composite sticks though didn
p481
aS'2014,07,10'
I14
tp482
a(Vmit dorms
(lp483
Vec looked awesome people actually able properly sleep study
p484
aVhappened bexley still exist hell
p485
aVbexley closed unfortunately administration cited structural proble
p486
aVadmins shut bexley kill destroy east campus culture
p487
aVhoping re sarcastic
p488
aVmasseh graduate dorm ashdown used think corr
p489
aVashdown still masseeh used hotel maseeh right front
p490
aVper maseeh website http maseeh mit edu php history inc
p491
aVspeaking former resident simmons last friday people
p492
aVregarding next house asians exactly true mccormick ton b
p493
aVcongrats graduating dupont ceo gave nice speech really didn
p494
aVthanks got lucky got shade maybe third way ceremo
p495
aVhey thanks reply simmons people normally keep doors
p496
aVvariety cultures inside simmons parts quiet
p497
aVactually enjoyed dining halls years mit gave larg
p498
aVlive next ill agree geeky culture bit mice aren
p499
aVnext air conditioning maseeh think ac senior house
p500
aVnew house air conditioning
p501
aVright bad thanks
p502
aVthank detailed reply next looks great although m sure
p503
aVobsessed rba traditional advising weeks re
p504
aVreally think get accurate representation dorm w
p505
aVpeople like think living groups radically different
p506
aVfirst mit doesn get sleep p first come mit
p507
aVnext act pit past year two years
p508
aVart aida catch see cmiyc se
p509
aVnice work
p510
aVthanks reply student groups next look great people
p511
aVmain social group definitely wings people hang mor
p512
aVinteresting impressions much different remembe
p513
aVokay two basic types dorms form tight communi
p514
aVthanks reply really interesting comparison d say
p515
aVbaker parties re honestly pretty lame involve heav
p516
aVec looked awesome like put show work hard
p517
aS'2014,06,11'
I14
tp518
a(Vmemory christina tournant
(lp519
Vchronic autoimmune illness mit one loneli
p520
aVsorry hear also suffer chronic autoimmune illness
p521
aS'2015,04,03'
I14
tp522
a(Vcollege gameday going harvard yale game time famous mit hack
(lp523
Vharmless college prank verbal warning act terrorism prison
p524
aVget caught
p525
aVcollegegameday https twitter com collegegameday
p526
aS'2014,11,16'
I15
tp527
a(Vmit alum regret mit
(lp528
Vgoing office hours well class figured didn need b
p529
aVfantastic answer want make sure urop two
p530
aVreally understood office hours became ta
p531
aVehh know professors wish got know students gra
p532
aS''
aVwell class figured didn need
p533
aVhonestly many regrets spaced coursework pretty well
p534
aVdidn many regrets graduated realized mit truly
p535
aVsleeping
p536
aVyep nearly smart think re sleep depri
p537
aVhanging central square davis square bars much
p538
aVyes
p539
aVactually regret going course x vi
p540
aVurop never definitely regret
p541
aVwish done battlecode robotics competitions instead
p542
aVmisti opportunities go abroad non work rel
p543
aVwould likely wall street anyway graduated co
p544
aVhaha graduated course would gunned microsoft goog
p545
aVstudying abroad
p546
aVtaking advantage international opportunities got accepted work w
p547
aVfeel like ve made friends honestly college life intro
p548
aVtaking advantage pe classes
p549
aVregret taking classes outside major listener got da
p550
aS'2014,11,06'
I15
tp551
a(Vsmoot spaced leds coming mass ave err harvard bridge
(lp552
Vprice pretty steep m donation additional lighting
p553
aVsmoot attendance verify accuracy thi
p554
aVok
p555
aS'2014,10,21'
I13
tp556
a(Vstudents
(lS'2014,04,25'
I12
tp557
a(Vlost ring giant snow mound simmons hall
(lp558
Vmake sure email sponge talk mit edu havent already hope someone
p559
aVthanks tip
p560
aVfreshman year lens popped glasses mound snow found
p561
aS'2015,02,16'
I12
tp562
a(Vhappens fail classes
(lp563
Vvalcavia exact thing happened many years ago arrived mi
p564
aVwant take year though make
p565
aVidea nowadays talk advisor wanted take
p566
aVprobably won make since re freshman need com
p567
aVanswer question dont know ill try give
p568
aVtalk advisor sooner rather later
p569
aVfirst semester ll get academic warning unless po
p570
aVdefinitely see advisor wanted add took quite
p571
aVtalk student support services http web mit edu uaap wa
p572
aS'2014,11,20'
I13
tp573
a(Vundergrads want grts
(lp574
Vgrts whole year stay hall dorm
p575
aVimportant thing grts opposed ra dynamic
p576
aVthanks helpful actually received surprise interview
p577
aVmake food study breaks let us get know make kn
p578
aVthings vary depending live share little o
p579
aVactive member grt selection committee previous grt l
p580
aS'2014,06,19'
I12
tp581
a(Vepic split feat tim beaver live test
(lp582
Vcute
p583
aS'2014,05,23'
I12
tp584
a(Vneptune silver lining
(lS'2015,02,16'
I10
tp585
a(Vnotes stata hallway blackboards
(lp586
Vrehearses lectures morning giving
p587
aValso barks way lecture warm voice
p588
aValso exact things mistakes puts
p589
aVnotes weren written janitors disappointed
p590
aVnope unfortunately good hunting hasn quite happened yet
p591
aS'2014,11,26'
I11
tp592
a(Vmike massimino talks mit
(lS'2014,11,24'
I11
tp593
a(Vcareful park moped sidewalk outside simmons hall
(lp594
Vtime couple months
p595
aVever get ticket left alone months random
p596
aS'2014,11,14'
I11
tp597
a(Vlawrence lessig harvard martin gilens princeton speak mit friday september citizens rising anti corruption symposium
(lS'2014,09,16'
I10
tp598
a(Vplans east campus kendall gateway finally moving along
(lp599
Veastgate going become lab space labspace built around
p600
aVeastgate going demolished plan build additional graduate h
p601
aVhuh interesting
p602
aVfrustrating know lot grads really liked living east
p603
aVmarty schmidt letter said new housing east campus area wil
p604
aVmakes sense interesting see throw housing w
p605
aS'2014,07,22'
I11
tp606
a(Vlost digital camera student center
(lp607
Vsend e mail next summer mit edu desk worker mailing lis
p608
aS'2014,06,11'
I10
tp609
a(Vpodcast mit check us
(lp610
Vim gonna check im pretty interested mit really want go
p611
aVeasily google questions
p612
aVway set social expectations someone asks help
p613
aVre wrong really isn place question
p614
aVm mit student ll lend hand agree seperate thread m
p615
aS'2015,04,20'
I12
tp616
a(Vdecision results everyone
(lp617
Vfolks work high school teacher us regularly write r
p618
aVm brazilian chose last high school year american
p619
aVmit rejected guys wont right
p620
aVsurreal accepted today almost believe m
p621
aVrejected anyone know hard get grad school like rea
p622
aVve met lot grad students came less prestigious schools
p623
aVm heading mit grad school fall coming good state school
p624
aVm mit grad school went name non usa school un
p625
aVmentioned another thread departments mit won even consider
p626
aVyep biology one
p627
aVgetting mit sloan one difficult things ever done
p628
aVga tech legit school actually top fields lik
p629
aVgot rejected ve guessed considering practically zer
p630
aVrejected overly surprised thought fighting chance goo
p631
aVgot rejected m sad
p632
aVrejected expected three people school already got ea
p633
aVgot rejected expected measly sat score internat
p634
aVmit allow submitting sat iis lieu testing anymore
p635
aVsubmit sat two sat subject tests mit also got
p636
aVhttp mitadmissions org apply international intltests actually still
p637
aVoh international student english first language sat
p638
aVah ok
p639
aVgot accepted insane feel like half people got reject
p640
aVworry ju m sure ll end re meant best luck
p641
aVapplying international pool get lucky
p642
aS'2015,03,14'
I10
tp643
a(Vthrive mit
(lp644
Vfeel like got lot good time mit however could
p645
aVexactly making contacts academia industry really easy wh
p646
aVword brother
p647
aVone thing see lot really bad study habits people think
p648
aVwould definitely take classes enjoy subject area enjoy m cu
p649
aVconsidered going abroad common practice mit
p650
aVtry different things semesters harm personally fe
p651
aVgraduated regret nothing taking classes semester
p652
aVone hand re going unusual hand
p653
aVmake new friends join clubs step comfort zone mit
p654
aS'2014,10,09'
I9
tp655
a(Vstarting grad school meche scared af
(lp656
Vfelt feel way look impostor syndrome going
p657
aVoh wow impostor syndrome pretty accurate haha
p658
aVlike us vs reviewers
p659
aVknow exact feeling started phd materials science fall
p660
aVkind exercising often long also m
p661
aVkind undergrad oriented applicable http mitadmissio
p662
aVthanks replies guys overwhelming feeling know f
p663
aVwon easy give chance regret f
p664
aVcome hang rest us meche coffee hour great sponsored eve
p665
aS'2015,04,15'
I9
tp666
a(Vguys consider good grades
(lp667
Vhope doesn sound like bragging story
p668
aVp yeah b mit nothing sneeze fact
p669
aVyeah get back work two psets due tomorrow p ther
p670
aVremind god m glad stopped ve heard many
p671
aVm class got mostly b c technical classe
p672
aVechoing notion nobody cares re rea
p673
aVtake everything perspective one kids gave life
p674
aVjunior like holy grail ve gotten hass
p675
aVre fine especially re poised finish semester st
p676
aVattach much weight grades proxy grad schoo
p677
aVfeel like b good grade grade take hass
p678
aS'2015,03,14'
I9
tp679
a(Vmade site help students study psets possibly procrastinate crosslinks mit edu
(lp680
Vseems like great resource would honestly consider offering bounties
p681
aVnothing motivates like money really re mit student
p682
aValso going suggest food maybe talk right people
p683
aVgoing soooo helpful look forward see turn
p684
aVlinks near future re going mitx like inter
p685
aVlike keep cycling links see one topic conne
p686
aVeasy use
p687
aVo ll keep eye developed similar solution undergra
p688
aS'2015,03,01'
I10
tp689
a(Vhey mit list places late night eats around boston know others
(lp690
Vbeantown taqueria cambridge open till weekends
p691
aVlet know know spots
p692
aVbostontweet maintains website late night eats link http bostont
p693
aVcool thanks
p694
aVpeach farm chinatown open would occasionally wander
p695
aS'2015,01,06'
I11
tp696
a(Vmit alumna looking roommate apartment near campus
(lp697
Vfeel free join mitcob facebook group post well https w
p698
aVthanks
p699
aS'2014,12,02'
I9
tp700
a(Vlil b going mit nov st
(lp701
Vbased rare event
p702
aVthink speak lot people say uhh
p703
aVmit getting rare appearance thebasedgod tybg
p704
aVmit student must know tickets sold extre
p705
aVthank based god rare educational event
p706
aVlilbthebasedgod https twitter com lilbthebasedgod
p707
aS'2014,11,04'
I10
tp708
a(Vphotograph july mit identify building still
(lp709
Vco worker reports east garage onr generator garage
p710
aValso museum page onr generator http webmuseum mit edu
p711
aVguess person taking photo would standing near th
p712
aVbrilliant thank
p713
aVgarage looks like albany garage building n building fron
p714
aVah indeed must albany garage albany st
p715
aVdisagree garage changed lot since photo
p716
aVyeah doesn quite look like albany garage remarkable much
p717
aVright right found old article repair job done alba
p718
aS'2014,10,09'
I9
tp719
a(Vtor co founder possible tor relays campus
(lS'2014,08,28'
I9
tp720
a(Vbuy coffee today mins rubygems troubleshooting
(lp721
Vfigure
p722
aVyeah thanks everything running basic state
p723
aS'2014,07,16'
I9
tp724
a(Vmark wahlberg producing big brew theory starring mit students
(lS'2014,05,09'
I9
tp725
a(Vmystery hunt
(lp726
Vhi someone writing team actually situation year
p727
aVoh great thanks clarification close actually
p728
aVreddit team r mysteryhunt mostly remote could
p729
aVthanks worked
p730
aS'2014,12,06'
I10
tp731
a(Vnoise barker library
(lp732
Vsound academic wraiths time somebody didn get tenure f
p733
aVtooo ooo oooo oool tooo ooo oooo oool
p734
aVsounds like every person lab
p735
aVreading room yes noise cancellation system install
p736
aVneat til
p737
aVknew perfect accidental
p738
aS'2014,11,30'
I9
tp739
a(Vmit urban legends ghost stories
(lp740
Vsaw lights green building
p741
aVimpossible
p742
aVworld hasn ended yet m going go ahead call bs one
p743
aVheard mit hacking culture students aren afraid goes b
p744
aValso tomb unknown tool
p745
aVheard student finishing p sets midnight
p746
aVless believable green building one
p747
aVwindows green building dark without power outag
p748
aVyear disturbance outside baker house dozens piano
p749
aS'2014,10,03'
I7
tp750
a(Vmeta mit support
(lS'2014,05,28'
I9
tp751
a(Vanyone else going hackathon next weekend
(lp752
Vopen group code make sure people know grabbed
p753
aVahhh didn see hackathon m going kayak http wth kayak com
p754
aS'2015,04,19'
I6
tp755
a(Vsticker history
(lp756
Vmade printed stuck place
p757
aS'2015,03,17'
I6
tp758
a(Vdifference grad undergrad experience mit
(lp759
Vvi p stayed one year felt like friends left
p760
aVfirst year two fine still plenty friends aro
p761
aVluckily time actually disposable income go
p762
aS'2015,03,03'
I6
tp763
a(Vlogs serenaded lucky ladies time valentine day
(lS'2015,02,14'
I7
tp764
a(Vseries newb questions
(lp765
Vhttps groups mit edu webmoira check free food vultures r
p766
aVdepartments buildings sub lists like csail vult
p767
aVtake w courses put small close community
p768
aVmit cracked lot fraternity party scene recently fr
p769
aVaren lot writers mit know formal organ
p770
aVcheck rune literary magazine know still exist
p771
aS'2015,02,07'
I9
tp772
a(Vbrian chan m mit grad maker anything d printed sculptures costume armor origami ama x post r iama
(lS'2014,12,16'
I7
tp773
a(Vmit students actually get promised bitcoin
(lp774
Vhaven yet one friends though told us ro
p775
aVmany people talking students think
p776
aVlittle buzz remind friends dormmates fill survey b
p777
aVmessage brought thelonious monkfish restaurant central
p778
aVtasty food
p779
aVm boat
p780
aVknow ec doesn finally buy school busses sud
p781
aVve loop year wasn issue pl
p782
aVpretty much yeah also insurance think
p783
aVyup got last week got like bitcoin
p784
aVyes got nd rd day roll started
p785
aVyup got mine week ago believe every undergraduate began
p786
aVgot mine last week
p787
aVwell pretty much everyone immediate friend group discussing th
p788
aVhaven got mine yet friends order food together wee
p789
aVmine arrived last week
p790
aVyep people know got last week
p791
aVyep got staggered roll
p792
aVyeah got mine m currently working getting bitcoin miners set
p793
aVgot bitcoin deposited days signed one deposit
p794
aS'2014,11,11'
I7
tp795
a(Vmit mini maker faire today
(lS'2014,10,04'
I8
tp796
a(Vboston festival indie games johnson athletics center x post r boston
(lp797
Vlist going work could swing dow
p798
aS'2014,09,11'
I6
tp799
a(Vperson fell third story mit frat building bay state
(lp800
Vnon mobile link http wcvb com news woman falls rdfloor
p801
aVquote end worrisomely vague
p802
aVmit take murica murcia
p803
aS'2014,09,02'
I7
tp804
a(Vmit alum jeopardy winningest female going win tonight
(lS'2014,05,19'
I7
tp805
a(Vcool graduation gift
(lp806
Vthink jewelry would lovely maybe something geometric sculptural
p807
aVoh thank ve past given earrings caffeine molec
p808
aVdoesn golden brass rat class ring definitely get one
p809
aVoh good know d need grad rat ve googled
p810
aVop stated niece going grad program d get g
p811
aVdeserve get downvoted reminds joke camb
p812
aVtake pick birkenstocks socks http bp blogspot com qlkg wo
p813
aVhope re joking weep
p814
aVhalf joking pretty much sums cambridge looks like
p815
aS'2014,05,08'
I6
tp816
a(Vmit president chairman pie students
(lp817
Vdonate help cause https www aepi org philanthropy chapte
p818
aVcalculus one halls
p819
aS'2014,05,07'
I8
tp820
a(Vwould mit community interested head head competition bitcoin one top environmental friendly alternatives next fall bitcoin mining wastes least times electricity energy efficient alternative coins
(lp821
Vhash rate isn directly proportional energy consumption bitcoin m
p822
aVsince come better understand relationship hash rate
p823
aS'2014,05,04'
I8
tp824
a(Vmit nano coming
(lS'2014,04,29'
I7
tp825
a(Vmit provide discounted copies windows students
(lp826
Vhttps ist mit edu software hardware type platform users
p827
aVokay cert need mit id number application
p828
aVyears want say part welcome
p829
aVreally simple item installed computer get y
p830
aVget athena account athena computing system mit m
p831
aVhey point start ll sent orientatio
p832
aVwindows free anyway wait till summer ll fine d
p833
aVfyi mit windows license requires connectivity mit network
p834
aS'2015,04,18'
I7
tp835
a(Vcampus tours
(lp836
Vgo tour group spend time exploring ow
p837
aVyeah thats thinking
p838
aVcurrent tour guide checking actually think pretty awesome tours
p839
aVfriends tour guides guys great even though m sen
p840
aVagree hard get feel campus life summer doesn
p841
aVokay thank
p842
aValso recommend interested research particular l
p843
aVokay thank much
p844
aVvisited campus yesterday undergrad info sesh well campus
p845
aVawesome
p846
aVwent tour spring break weeks ago tour guide awesome
p847
aVokay thanks
p848
aS'2015,04,15'
I7
tp849
a(Vmit divestment debate
(lp850
Vmain argument divestment would end largely
p851
aVwell question mit community focused
p852
aVclarify mean aligning particular political movemen
p853
aVclarify mean aligning particular political mo
p854
aVthanks guess right read divestment side
p855
aValways painted climate change d
p856
aVmit chooses divestment tacitly aligns p
p857
aVsorry see point re trying make particular resea
p858
aS'2015,04,09'
I5
tp859
a(Vcurrent students laptop specs recommend mit undergrads
(lp860
Vcurrent student depends major took notes paper
p861
aVmeche half decent windows machine recent mac running window
p862
aVmine often sluggish running windows might
p863
aVdoesn matter course crappy computer never
p864
aVissue want stuff like computer vision took laptop
p865
aVstarted class laptop exercises semester
p866
aVget something reasonably durable decent specs heavy
p867
aVagree weight ll carrying around lot
p868
aVcourse carry laptop everywhere m assuming re
p869
aVbought thinkpad mit withstood lot abuse totally m
p870
aVmeche get computer matlab solidworks compatible specs otherwise
p871
aVcourse think getting mac right choice able run c
p872
aVm grad student pen paper classes seems fine use macbook
p873
aVdepends major type research may interested f
p874
aVuse surface pro great general purpose work taking note
p875
aVget mac dell thinkpad lenovo laptop tech support ha
p876
aVm course major macbook air reason got becau
p877
aVcurrent students think recommended computers https ist mit
p878
aVanything current frosh long battery helps
p879
aVnecessarily true although maybe freshman classes m
p880
aVassuming op considering generic laptop right though
p881
aVdepends major know rest people thread
p882
aVlenovo carbon x really excellent dual booting windows linu
p883
aS'2015,04,02'
I7
tp884
a(Vmit community service fund accepting grant applications apply march funding carry community service project
(lp885
Vhi m ashley staff board community service fund re
p886
aVregards getting word email dorms current
p887
aS'2015,03,10'
I6
tp888
a(Vve accepted grad school wondering could tell things mit want hear visit
(lp889
Vthink culture mit whole matters less culture
p890
aVhi thanks response think culture mit whole mat
p891
aVecho eeyore mit culture mit known primarily undergraduate
p892
aVfair many many activities mit grad students par
p893
aVimportant careful selective lab decide
p894
aVm end phd would go back definitely however advice f
p895
aVthree universities thinking great although n
p896
aVkeep mind mit ugrad grad grads phd
p897
aVbig school weather nice one day year honestly betwee
p898
aS'2015,02,20'
I6
tp899
a(Vfebruary update form show applicants
(lp900
S''
aS'2015,01,19'
I5
tp901
a(Vpardis sabeti featured time person year article
(lS'2014,12,13'
I5
tp902
a(Vresearch opportunities non mit students
(lp903
Vunusual totally email professors start cont
p904
aVcourse going course ish stuff drug development wi
p905
aVseveral non mit people work lab including ones without pa
p906
aVencouraging know thanks
p907
aVaaah sure sounds like ve bit complicated path finding w
p908
aVthanks positive vibes
p909
aS'2014,12,03'
I7
tp910
a(Vregarding boba
(lp911
Vnope late years ago used place kendall call
p912
aVfind juice bar https www google com maps place juice bar
p913
aVbao bao boba ends tasting fake though obvious use powders
p914
aVsimmons night cafe still serve
p915
aS''
aVm currently upperclassman mit ve quite boba place
p916
aVsweet roommate zbt swag ride sometime
p917
aVsweet dude chef also super good definitely din
p918
aVfyi kung fu tea opened davis want location closer
p919
aVdepends mean late night latest option proba
p920
aVrip leisure station
p921
aVmuch
p922
aS'2014,11,09'
I6
tp923
a(Vone six female mit students victim sexual assault survey
(lp924
Vone six self reported likely respond
p925
aVmake sound probably representative one six n
p926
aVone six female undergraduates massachusetts institute technology
p927
aVm glad hear re average respect also th
p928
aVwell said shouldn accept number zero numbers given st
p929
aS'2014,10,27'
I8
tp930
a(Vgraduate student austin travis dead
(lS'2014,09,08'
I7
tp931
a(Vhackmit
(lS'2014,07,19'
I6
tp932
a(Vmit students make d printed ice cream
(lp933
Vfree ice cream didn happen
p934
aS'2014,07,18'
I6
tp935
a(Vsee mit alum founder band boston tom scholz new pbs web series
(lp936
Vseries isn actually new number mit profe
p937
aVthanks links congrats meant new episode series wo
p938
aS'2014,05,29'
I6
tp939
a(Vcould anyone give info different floors burton conner
(lp940
Vunless things changed ton year burton conner hall rush
p941
aVd happy take tour bc sometime least let
p942
aS'2015,04,04'
I4
tp943
a(Venroll interphase
(lp944
Vsummer d recommend made best friends
p945
aVbest friends cause best friend didn
p946
aVknow go away
p947
aVgot events show
p948
aVdont show nothing happens give disappointed look
p949
aVclaim ome events mandatory usually ev
p950
aVoh yeah heard ome advisors horrible re basically paying y
p951
aVm little late party ll piggy back top post
p952
aVip cohort lot fun also made lot
p953
aVip d agree past comments gaining friends free time
p954
aVyes made closest friends learned chemistry
p955
aVthanks answers couple questions summer cl
p956
aVcannot used test introductory classes like
p957
aVdamn ip gave us units per subject total think
p958
aS'2015,03,30'
I5
tp959
a(Vgood place wash bike around mit
(lp960
Vchapel moat
p961
aVhahaha doesn make baptism
p962
aVbunch drunken baptisms college
p963
aVcar wash monsignor o brien next sav mor liquor half
p964
aVgreat ll give blast thanks
p965
aVreally wipe damp rag power washing bike
p966
aVgood advise however salt roads pretty ba
p967
aVthanks detailed response much better way putting h
p968
aVagreed power wash tear paint
p969
aS'2015,03,08'
I4
tp970
a(Vmath comedy songs dicks lecture rachel bloom mit pm
(lS'2015,02,27'
I6
tp971
a(Vphones
(lp972
Vmit process installing antennas buildin
p973
aVthought completed project ago email
p974
aVmain group like done pretty much working outskirts cam
p975
aVyeesh year ago said would take six months
p976
aVthats good info know thx sharing
p977
aVget strong lte service campus consistently
p978
aVphone unlocked take look mnvos cricket right
p979
aVmobile terrible walking along charles w building att
p980
aVverizon works fine get service tunnels sometimes bu
p981
aVcarrier use currently terms current plan
p982
aValso want get new cell phone allow get sm
p983
aVsure consider ting care paying much
p984
aS'2015,02,24'
I5
tp985
a(Vopinions draper laboratory
(lp986
Vve never worked draper however would start internship un
p987
aVparticularly research lab along lines development
p988
aVlab work much less important project work
p989
aVproject doesn seem fruitful interesting would best
p990
aVsummer internships fellowship draper student
p991
aVundergraduate degree mit
p992
aVyes bachelor m eng
p993
aVworking draper great route getting mit lab viewed ver
p994
aVthanks response ive heard good things far
p995
aVdraper fellow mechanical engineering sm work f
p996
aVboss got phd mit think would make considerable differ
p997
aS'2014,12,29'
I4
tp998
a(Vdatabits edx learning dashboard challenge
(lS'2014,12,17'
I5
tp999
a(Vfinancial aid concerns
(lp1000
Vhey mit policy parents make less k year o
p1001
aVbasically spot m currently senior family makes k
p1002
aVfamily makes k year holy shit get
p1003
aVplenty low income students admitted every year get
p1004
aVget research projects re poor doesn add nobody gets
p1005
aVchance parent student neither id say quarter
p1006
aVobviously different circumstances cases yes matter
p1007
aVgetting belief literally asked mit students
p1008
aVfuck get without research projects start c
p1009
aVhi sure march earliest month mit provide finan
p1010
aVmit screwed financial aid wise offered
p1011
aVthink typical scenario office financial
p1012
aVve heard ends spectrum plenty friends similar
p1013
aVsure financial situation home right middle o
p1014
aVve loop since graduating years ago believe u dang
p1015
aVgraduated years ago single working parent earned less k w
p1016
aVtake account net worth yearly salary stil
p1017
aVwasn case mainly got screwed
p1018
aVresponse worries appeal package office
p1019
aVtwo parents one works three younger siblings appealed package w
p1020
aVcongratulations accepted stress much financial aid
p1021
aVcurrent student exactly talk order appeal fi
p1022
aVtry asking person sfs office sometime morning
p1023
aVmit stanford caltech gave similar financial aid offers stanford
p1024
aVmit go way make sure attend school
p1025
aVseriously stress financial aid mit give package
p1026
aS'2014,12,15'
I7
tp1027
a(Vgetting hold freshmen
(lp1028
Vdeleted
p1029
aVthank suggesting sent email
p1030
aVemail anne hunter get word eecs brandy baker get wor
p1031
aVthanks tip ve working campus yea
p1032
aVjob currently employ students distribute posters fl
p1033
aVstudent operator position reactor lab several stude
p1034
aVoffer free food event post posters around campus also email de
p1035
aVgreat idea emailing department heads thanks would food
p1036
aVurop upop
p1037
aVnope regular part time job school year full time
p1038
aS'2014,12,10'
I4
tp1039
a(Vnfc arg tunnels
(lS'2014,11,23'
I4
tp1040
a(Vpumpkin drop pm tonight saturday mmcdermott court front green building
(lS'2014,11,01'
I4
tp1041
a(Vmit media lab announced creation laboratory social machines funded five year million commitment twitter
(lS'2014,10,03'
I4
tp1042
a(Vstudents halloween
(lp1043
Vspooky skate fairly popular event hosted savetfp ice
p1044
aVpumpkin drop
p1045
aVproblem sets least ll
p1046
aVmake friend find party make costume go bars work
p1047
aVsex freshmen
p1048
aS'2014,09,22'
I4
tp1049
a(Vmit chat forums
(lp1050
Vhttps isawyou mit edu pining would lovers
p1051
aVisawyou anonymous message board often cute strictl
p1052
aVothers mentioned zephyr note zephyr anonymous ev
p1053
aVknow re looking anonymous throwing
p1054
aVisawyou exactly kind thing need right looks like
p1055
aS'2014,09,15'
I5
tp1056
a(Vliving campus month best thing see mit
(lp1057
Vhaven barker definitely best place hang sure
p1058
aVpsa athena currently repairs d bring chair
p1059
aVget college card go see bso also see boston ballet opera per
p1060
aVnotable restaurants include desfina greek yumminess thelonious
p1061
aVoh man miss dumpling house china pearl newer dim sum plac
p1062
aVinterestingly find dim sum place one prefers depends area
p1063
aVmit people get know projects classes extra curricular
p1064
aS'2014,07,28'
I5
tp1065
a(Vcanadian cs student cambridge fall
(lp1066
Vm sure policy class lectures might able
p1067
aVthanks info lot csail talks look super interesting wis
p1068
aVcannot view link without csail certificates
p1069
aVplease come lectures nobody notice rarely
p1070
aValso check mit museum cool csail relics tha
p1071
aVattending uwaterloo hackathon well hackmit
p1072
aVwaterloo one put application hackmit
p1073
aVemail professor case chances might
p1074
aS'2014,07,18'
I5
tp1075
a(Valum founded aeronaut brewing opens week union square
(lS'2014,06,16'
I4
tp1076
a(Vstudents around boston summer xpost r boston
(lS'2014,06,10'
I5
tp1077
a(Vcharlie cards ids deactivated id deactivated
(lp1078
Vfair amount research charlie cards mit
p1079
aVnote charlie cards expire since within id never kn
p1080
aVexpect around nearly long enough thanks h
p1081
aVcurrent student id deactivated student id
p1082
aS'2015,02,05'
I3
tp1083
a(Vthing old mit
(lp1084
Vthink answer faq already bachelor degre
p1085
aVwork admissions confirm incredibly heavily enforced
p1086
aVapply master student post sounds like
p1087
aVtotally agree guy finished doctorate
p1088
aVyes concerns pretty much d odd one
p1089
aVah got might ask discipline l
p1090
aVm hungary thinking going towards mathematics physics po
p1091
aVable make enough case could admitted
p1092
aVknow student class started bunch w
p1093
aVwould apply grad school instead average mit undergrad freshman l
p1094
aVadmission competitive program like mit competitiveness doe
p1095
aVlook way admissions committee always looking someone
p1096
aS'2015,01,31'
I3
tp1097
a(Vmit engages dialogue race ferguson mo
(lS'2014,12,11'
I5
tp1098
a(Vphoto silent protest outside stata ferguson nyc events people enter winterfest
(lS'2014,12,10'
I4
tp1099
a(Vways go abroad mit
(lp1100
Vmisti incredible multiple times trust won
p1101
aS'2014,12,04'
I3
tp1102
a(Vforget mit independent activities period iap
(lp1103
Vdeleted
p1104
aVsomeone drop iap roof baker house remind us
p1105
aS'2014,11,25'
I2
tp1106
a(Vnew boston lan college esports league starting year
(lp1107
Vcsgo guess enough people play
p1108
aVunfortunately right however open division tournaments fo
p1109
aS'2014,10,01'
I4
tp1110
a(Vfamous campus today
(lp1111
Vgoing guess aquino president philippines scheduled
p1112
aVleast one license plates consul listed another one
p1113
aS'2014,09,26'
I4
tp1114
a(Vadvice first years alumni current students
(lS'2014,09,18'
I4
tp1115
a(Vlooking kids tshirts college day nd grader
(lp1116
Vbrick mortar coop stores much larger selection youth shirts
p1117
aVtold d make one iron didn like idea
p1118
aS'2014,08,23'
I4
tp1119
a(Vbanking mit students
(lp1120
Vmitfcu answer re pretty awesome
p1121
aVmitfcu good nice web access features atm fees reimbursed
p1122
aVmitfcu lowest fees decent online system nice staff maybe
p1123
aVmitfcu reimburse atm fees month
p1124
aVm pretty sure twice month mitfcu lets withdraw banks atms
p1125
aVwon get charged mitfcu likely get charged
p1126
aVchecked statement looked like mitfcu credited account
p1127
aVmitfcu complaints aren
p1128
aS'2014,08,18'
I3
tp1129
a(Vjoi ito new motto deploy die
(lp1130
Vunderstand downvotes
p1131
aVknow sure nlm seems frequently post subreddit w
p1132
aVwork mit try share stories relevant people f
p1133
aS'2014,07,29'
I4
tp1134
a(Vgeorge takei visits mit media lab mit agelab
(lS'2014,07,24'
I5
tp1135
a(Vtango
(lS'2014,06,24'
I4
tp1136
a(Vpeople excited bitcomp competition thank mit yet another example mit maintaining innovative reputation
(lS'2014,06,07'
I4
tp1137
a(Vaccess d printers mit
(lp1138
Vmit fab lab south end tech center multiple d printers
p1139
aVwould contact would get information possibly volunte
p1140
aVhobby shop d printer
p1141
aS'2014,06,01'
I2
tp1142
a(Vprospective grad student questions eecs
(lp1143
Vknow mit eecs terminal master degree state
p1144
aVm curious bother master degree eventually want ph d
p1145
aS'2014,05,28'
I5
tp1146
a(Vopinion time institute divest fossil fuels
(lp1147
Vrelevant r divestment
p1148
aS'2014,05,13'
I4
tp1149
a(Vmit students think non mit students
(lp1150
Vsomething notice whenever large group mit friends get toget
p1151
aVunfortunate ve met people respond way m quite sur
p1152
aVstereotypes still influence people behave applies every way
p1153
aVmit students think non mit students ve lived ashdown
p1154
aS'2015,04,05'
I2
tp1155
a(Vdiscounted passes students
(lp1156
Vthink costs like month http web mit edu facilities transportatio
p1157
aVyes get semester pass even cheaper
p1158
aVcitation
p1159
aVpass signup mit website least first came ye
p1160
aVinteresting got semester pass spring recall
p1161
aVknow ll living working re near mass ave
p1162
aVyeah go aksdeg link want linkpass get
p1163
aVlimited number better apply early apply
p1164
aVyes amazing go id services sign
p1165
aVonline
p1166
aVback day haha
p1167
aS'2015,03,24'
I4
tp1168
a(Vcourse alums important probabilistic systems analysis career programmer developer
(lp1169
Vtook undergrad completely changed way looked
p1170
aVagree wholeheartedly
p1171
aVtook never needed amount o
p1172
aVdefinitely nice
p1173
aVone things rarely use directly real job
p1174
aVuseful ee stuff ve done ve used modeli
p1175
aS'2015,02,10'
I3
tp1176
a(Vspring concert
(lp1177
Vmitstudents twitter making announcement couple weeks
p1178
aS'2015,01,28'
I3
tp1179
a(Vsummer boarding
(lp1180
Vcould stay et dry house located brookline convenient
p1181
aVok thank recommendations emailed
p1182
aVet communal bedroom type place friendly people one bedroo
p1183
aVmit fraternity houses cambridge boston boston ho
p1184
aVthank info map super helpful emailed already
p1185
aVstay frat want wouldn har
p1186
aVfrats mit def safe sublet probably best option proximit
p1187
aVyep safe think fraternities try get good number
p1188
aValso look sublets grad dorms lot grad students
p1189
aS'2015,01,22'
I3
tp1190
a(Vscreening live chomsky webcast killian hall today
(lS'2015,01,20'
I3
tp1191
a(Vhousing cooperatives grad students mit
(lp1192
Vknow couple people one specifically fenway house seems
p1193
aVlive fh although ve housed many grad students past
p1194
aVhi m undergraduate currently living pika one ilg coops prett
p1195
aVhandful independent living groups quite graduate students
p1196
aVhello m undergrad living et say perfect informatio
p1197
aValso effectively form sense quite common f
p1198
aVdecisions next fall website says give deci
p1199
aS'2014,11,27'
I2
tp1200
a(Vmites program
(lp1201
Vprogram years ago excellent program really got excited
p1202
aVincredible
p1203
aS'2014,11,25'
I4
tp1204
a(Vwould say ocw neutered version real mit classes
(lp1205
Vocw materials aren classes re lecture slides problem sets
p1206
aVthink ocw classes aren recreations mit class
p1207
aVocw designed async free open access never intended
p1208
aVclass changes depending professor would say current psets f
p1209
aVtextbook learning get far necessary insufficien
p1210
aVtook ocw watched lectures read papers discussed wi
p1211
aS'2014,11,24'
I1
tp1212
a(Vmit wants ideas addressing climate change
(lp1213
Vstop accepting money koch brothers
p1214
aVlimit spam fossilfreemit crowding prac
p1215
aS'2014,11,13'
I3
tp1216
a(Vhelp improve geosocial io service keeping happening mit
(lp1217
Vdifference hyper localized yik yak
p1218
aVdifferences like ability post pictures upcoming eve
p1219
aVfeel like miss gossip news events mit
p1220
aVrandom question op startup scene mit ever see undergrad
p1221
aVstartup scene really good lots projects getting started
p1222
aVschool like
p1223
aVnothing stopping starting entrepreneurship club
p1224
aVactually quite resources school grad students
p1225
aVthink forgot entire engineering entrepreneurship program whi
p1226
aVwell yes kind different scope late undergrads g
p1227
aVhaven looking http research ncsu edu ott new companie
p1228
aVdisagree ll still leave https angel co massachus
p1229
aS'2014,11,12'
I4
tp1230
a(Vsignificant athena
(lp1231
Vfirst first first successful campus wide network
p1232
aVrandom dude found project athena directory publicly avai
p1233
aVathena kind nebulous term days project athena las
p1234
aVeven bother reading wikipedia article
p1235
aVgreek goddess wisdom shes one kind one
p1236
aVaffirmative action doesn work flamesuit
p1237
aS'2014,11,06'
I3
tp1238
a(Vedx hiring questions let know
(lS'2014,10,28'
I3
tp1239
a(Vanybody know first snowriders bus trip
(lp1240
Vsure first trip according recent gsc anno
p1241
aS'2014,10,26'
I5
tp1242
a(Vsmall utility manage ips devices connected mit network want ssh laptop sure dorm work
(lS'2014,10,25'
I3
tp1243
a(Vfoosball tables anywhere campus
(lp1244
Vthink one th floor stata warehouse nw
p1245
aVth floor dreyfus side
p1246
aVintramural league d check athleti
p1247
aVremember brand tables used
p1248
aVsimmons couple
p1249
aVone bottom floor burton conner near tv lounge th
p1250
aVgraduated last fall still intramural foosball addition
p1251
aS'2014,10,07'
I3
tp1252
a(Vtwitter chat mit alums work nasa tuesday bring questions
(lS'2014,10,03'
I3
tp1253
a(Vused electronic equipment basement stata
(lp1254
Vre confusing depot free electronics stata loading dock ar
p1255
aVcareful though everything stata loading dock reuse o
p1256
aVarea stata referred x stata reuse mailing lis
p1257
aS'2014,09,28'
I3
tp1258
a(Vhangers
(lp1259
Vreuse still thing mit subscribe reuse reuse ask p
p1260
aVyes still thing mit recently put another building onto reuse
p1261
aVreuse ask source things
p1262
aVgo shaw buy bucks decenlty sized p
p1263
aS'2014,09,06'
I3
tp1264
a(Vsevt starting work new car good time join
(lS'2014,09,03'
I3
tp1265
a(Vgood beginner intermediate friendly groups campus meet work web projects
(lp1266
Vhttp sipb mit edu let gruff exterior fool re
p1267
aS'2014,08,24'
I3
tp1268
a(Vbrain study volunteers wanted completion
(lp1269
Vfree morphine much pay
p1270
aVhaha missed morphine part something like without drugs whe
p1271
aVmorphine makes itchy surgery put
p1272
aVgrad student quite interesting d
p1273
aS''
aS'2014,08,15'
I3
tp1274
a(Vhackmit anyone participated like going worth long trip
(lp1275
Vlot issues last year enough space internet working
p1276
aVdeleted
p1277
aVhueuheuheueuuehuheuheuhe
p1278
aS'2014,08,15'
I3
tp1279
a(Vappearances mit anime
(lS'2014,08,14'
I3
tp1280
a(Vlong put swim test
(lp1281
Vlast week allowed right graduatio
p1282
aVshape took swim test passed went chang
p1283
aVzero days orientation get done
p1284
aVswim reason swim take class
p1285
aVnote re uncomfortable taking swim test meet swim r
p1286
aVeven though already knew swim good easy way
p1287
aVnear end senior year reason slept
p1288
aVwanted sail required swim test boat test tread water
p1289
aS'2014,07,16'
I2
tp1290
a(Vmit medical provider
(lp1291
Vchoose new one old one left times read
p1292
aVleigh firn pretty cool
p1293
aVyes cool highly efficient nonsense willing righ
p1294
aVrelated question sorry piggy back post d rather start
p1295
aVwife daughter wish could take
p1296
aVthanks response cheaper option health exc
p1297
aVwould compare could get exchange
p1298
aVok thanks information
p1299
aS'2014,07,09'
I3
tp1300
a(Vprinting
(lp1301
Vcould try desk worker least one student working th
p1302
aVmit copytech friend http copytech mit edu print copy services pri
p1303
aVask program coordinator set things print
p1304
aS'2014,06,25'
I3
tp1305
a(Vfreshman advising seminars
(lp1306
Vsmall discussion groups led freshman advisor b
p1307
aVthanks lot
p1308
aVteach one seminars pm would like information th
p1309
aVsent thanks
p1310
aVyes also take class nothing advisor b
p1311
aVsay rba longer locks dorm rush next masee
p1312
aVcomparing experience traditional friends mine advis
p1313
aVhated seminar didn get along students
p1314
aVwould recommend seminar re truly interested
p1315
aS'2014,06,15'
I3
tp1316
a(Vlate macbook pro stolen new house
(lp1317
S''
aVx
aVwave thefts going campus everyone else reading th
p1318
aS'2014,06,09'
I3
tp1319
a(Vboston festival indie games returns mit johnson athletic center september tickets sale
(lp1320
Vwasn free last year fun though definitely worth
p1321
aValso ran kickstarter happening year
p1322
aValright thanks
p1323
aS'2014,05,16'
I5
tp1324
a(Vquestion dining
(lp1325
Vyes
p1326
aVknow maseeh dorm serves lunch week
p1327
aVthank pro tips
p1328
aVsenior dining plan entire time ve m
p1329
aVthank much really helped clear lot questions ha
p1330
aVrooming together sure didn come freshman transferred
p1331
aVroom assignment handled dorm individually pretty easy
p1332
aS'2014,05,15'
I4
tp1333
a(Vtwo w alumnae read poetry campus tonight weds pm room
(lp1334
Vm one jessica young happy answer questions hope
p1335
aS'2014,04,30'
I3
tp1336
a(Vgraduate housing options
(lp1337
Vlived person apartment ashdown kitchen
p1338
aVcorrect sidpac unavailable incoming students next year y
p1339
aVashdown isn bad would recommend also consider edgerton unl
p1340
aVknow mit several years ago pretty
p1341
aVthought ashdown pretty sweet like close roommates
p1342
aVm pretty strong proponent staying campus first year despi
p1343
aS'2015,04,21'
I2
tp1344
a(Veastgate westgate like
(lp1345
Vfriends lived eastgate becoming grt elsewhere quite
p1346
aVlooking family housing
p1347
aVyes husband actually one going school
p1348
aVworth would able find nice one bedroom campu
p1349
aVlove quiet haha thanks reply really appreciate
p1350
aVdepends close campus want could probably find
p1351
aVmonth including utilities cable internet heat water electric
p1352
aVfind br apartments price eastgate around porter inma
p1353
aS'2015,04,06'
I2
tp1354
a(Vcourse versus
(lp1355
Vinterests re really passionate cs side j
p1356
aVdegree says electrical engineering computer science matter
p1357
aVmaybe changed mine says electrical engineering computer science
p1358
aVagreed interests difference minor comes
p1359
aVcouple different ways look planning
p1360
aS'2015,04,03'
I2
tp1361
a(Vphd visiting period mit
(lp1362
Vmight check aerospace controls laboratory http vertol mit edu
p1363
aVknew grasp lab one best quadrotors didn k
p1364
aVwant aerial swarms daniela rus pretty cool work
p1365
aVthanks check
p1366
aVdepending want uavs lab m looking goo
p1367
aVthanks reply lab talking http senseabl
p1368
aVlab send cv samples portfolio letter senseable applicants m
p1369
aVthanks bear mind next didn know
p1370
aVwant extend satellite formations spheres team th
p1371
aVhttp www ae gatech edu research labs
p1372
aVthanks check
p1373
aS'2015,04,02'
I2
tp1374
a(Vmit spring career fair
(lp1375
Vcorrect mit effectively two spring career fairs one run
p1376
aVoh god exactly needed find thank
p1377
aS'2015,03,17'
I1
tp1378
a(Vcannot access decision today given database connection error
(lp1379
Vm getting error going
p1380
aVfixed
p1381
aS'2015,03,14'
I2
tp1382
a(Vfraternity housing summer
(lp1383
Vearly ll put many website http www mitif
p1384
aVkeep eye website start reaching fraternities know
p1385
aVyeah re really early d say start reaching around march
p1386
aVsaid another post could stay et summer n
p1387
aVthanks think saw actually living arrangements bit stra
p1388
aVthanks comments people saw ifc webpage didn look setup
p1389
aVyeah re going move days week mit finals whe
p1390
aVmany fraternities rent rooms females fyi
p1391
aVexperience brothers definitely get precedence blanket state
p1392
aVokay first sorry comment upset certainly meant offense d
p1393
aVgot downvotes people disagree ve heard
p1394
aVsee response backpackerhacker
p1395
aS'2015,01,18'
I2
tp1396
a(Vtoast iap next week
(lS'2015,01,15'
I2
tp1397
a(Vvarsity swim team information potential student
(lp1398
Vletter recommendation coach help get ahead som
p1399
aVhi swam things changed bit team improv
p1400
aVthanks detailed response question time
p1401
aVm entirely sure one swam basically anyone coul
p1402
aVwell really limited high school level canada
p1403
aVemail coach ask questions nice
p1404
aVcontingencies help admission email coach
p1405
aS'2014,11,24'
I2
tp1406
a(Vmit lincoln lab summer internship
(lp1407
Vpinged people know worked various capacities
p1408
aVawesome thank
p1409
aS'2014,11,24'
I2
tp1410
a(Vanyone willing lend ds
(lp1411
Vyoull better luck emailing dorm asking could also tr
p1412
aS'2014,11,22'
I2
tp1413
a(Vanyone know mithenge year
(lp1414
Vhttp web mit edu planning www mithenge html last year dates
p1415
aVpset question answer nov
p1416
aS'2014,11,03'
I2
tp1417
a(Vwatch lessons navigating mit
(lS'2014,11,03'
I2
tp1418
a(Vua election results released
(lp1419
Videa one really pays attention
p1420
aS'2014,10,11'
I2
tp1421
a(Vbike rack areas apparently motorcycles well
(lp1422
Vfeel way time see motorcycle use bike lane
p1423
aVcops state boston amused least bit y
p1424
aVmopeds cc legally allowed operate bicycle lanes gotta
p1425
aVsmall student made electric vehicles well
p1426
aVnope bicycle motor cannot bike lane
p1427
aVdeleted
p1428
aVtransit officers lol really dumb think transit offic
p1429
aVdeleted
p1430
aVwould please stop lecturing someone twice age especially aft
p1431
aVmopeds ie motorized pedal bicycles yes scooters ie things sit
p1432
aVm trying dick want make sure everyone gets co
p1433
aVlook left towards main street ll see moped two well
p1434
aS'2014,10,10'
I3
tp1435
a(Vcancer spotting yogurt may offer cheap simple test mit technology review
(lS'2014,10,05'
I2
tp1436
a(Vfound hacks hitcounter macro mashing f night started
(lp1437
Vmean okay found hit counter old unused page happens b
p1438
aVoops source page http hacks mit edu hacks misc comments suck html
p1439
aVcongratulations please note date http hacks mit edu hacks misc com
p1440
aS'2014,10,01'
I2
tp1441
a(Vspinal implant paralyzed rats walk mit technology review
(lS'2014,09,28'
I2
tp1442
a(Vanyone know bike auction
(lp1443
Vtold grad orientation september th
p1444
aVedit u w nt correct september th http web mit edu faciliti
p1445
aS'2014,09,04'
I2
tp1446
a(Vtraveling cambridge boston nyc bronx
(lp1447
Vchinatown bus wifi edit apparently wifi get
p1448
aVboltbus
p1449
aVthanks suggestion know significant differences betwe
p1450
aVboltbus megabus usually nice things like wifi power
p1451
aVbolt much better peterpan bigger seats pro tip sit
p1452
aVbiggest upside boltbus buy ticket guaran
p1453
aVwant reliable take bus amtrak purchase early
p1454
aVbad advice either buy ticket weeks advance amtrak yo
p1455
aVm happy spend extra guarantee
p1456
aVamtrak power outlet every seat fully refundable hours befo
p1457
aVflights ways first class take account minutes one
p1458
aVdepends reliability re looking m seeing flights
p1459
aVboltbus avoid leaving friday nights sunday nights possibl
p1460
aS'2014,08,13'
I2
tp1461
a(Vpirates pro wrestling heavy metal chocolate mit
(lS'2014,07,25'
I2
tp1462
a(Vjoin varsity sports team mit
(lp1463
Vactivities midway orientation least vast maj
p1464
aVplayed lacrosse mit alessi get back eventually
p1465
aVre fine m varsity rower roommate walked lacrosse te
p1466
aVknow procedure never varsity sport
p1467
aS'2014,07,20'
I2
tp1468
a(Vbad cat situation dorms
(lp1469
Vcat aren swarms anything
p1470
aVeast campus halls e e e w w cat halls
p1471
aVsaid cat halls cats hate ar
p1472
aVw ec undergrad days think cat
p1473
aVop ec halls kitchen bitch student whose job mak
p1474
aVwhole thread hilarious wasn sure real first
p1475
aVthink want concerned rat situation cat si
p1476
aVsenior house strict limit like cats whole building
p1477
aVwait make sure people weren allowed bring
p1478
aVcourse mice situation pretty good
p1479
aVroach situation catless hall roaches eewwww app
p1480
aVunless choose live hall suite allows cats would never
p1481
aVmit alum trust say rules havin
p1482
aS'2014,07,14'
I2
tp1483
a(Vinterview one funder mit bitcoin project
(lS'2014,07,03'
I3
tp1484
a(Vsomeone give experience ase
(lp1485
Vsat walked halfway didn prep properly
p1486
aVpassed ase freshman
p1487
aVfair kenan re pretty baller individual lesser mortal
p1488
aVcuriosity would able guess passing grade mo
p1489
aVroughly equivalent c according department heads spoke l
p1490
aVokay thank
p1491
aVanother point count towards gpa one really cares
p1492
aVtrying optimize many vs many pass
p1493
aVyea makes sense remember correctly penalties
p1494
aVchemistry hell even bother number people take vs pa
p1495
aVgoing even bother
p1496
aS'2014,07,02'
I2
tp1497
a(Vrequest looking copy thesis elec cs dpet mit
(lp1498
Vsee published technical report ai lab lcs mo
p1499
aVinteresting suggestion still unable find searched http publ
p1500
aVable locate web page contact information author
p1501
aValso found published conference jonathan amsterda
p1502
aVworst case try interlibrary loan get one
p1503
aVavailable dspace http dspace mit edu handle
p1504
aVthink op asking amsterdam ms thesis one phd
p1505
aVexactly
p1506
aS'2014,06,27'
I2
tp1507
a(Vgiant red weather balloon white house rose garden
(lS'2014,06,27'
I1
tp1508
a(Vregistration open mit alumni leadership conference
(lS'2014,06,26'
I1
tp1509
a(Vmit alum sm looking oneplus one invite anyone
(lp1510
Vd love one well gb version somebody extra sm
p1511
aS'2014,06,03'
I4
tp1512
a(Vmit alumna wins alan alda flame challenge best video helped pick winners
(lp1513
Vyoutube channel physics girl https www youtube com user physicswom
p1514
aValumni association interview dianna https alum mit edu pages sliceofmi
p1515
aS'2014,06,03'
I2
tp1516
a(Vh cking medicine twitter chat mit alums
(lS'2014,05,27'
I2
tp1517
a(Vusing mit ocw looking homework assignments solutions
(lp1518
Vcontact professor directly likely reason assignments
p1519
aVmajority homework assignments current semester ta
p1520
aS'2014,05,09'
I2
tp1521
a(Vmoving week trying surprise cousin
(lp1522
Vadorable
p1523
aVthanks cousin actually died though weekend
p1524
aVim sorry hear man least worry maggot
p1525
aVdude fucked allergic maggots
p1526
aVdude fucked allergic maggots
p1527
aVmustve really allergic based amount time commented
p1528
aVdouble allergic rip gravey
p1529
aVdefine moving week also cousin graduate undergraduat
p1530
aVgraduating moving week mean everyone packing l
p1531
aVmight want go family lot time
p1532
aVawesome ll thanks
p1533
aS'2014,05,09'
I2
tp1534
a(Vstudents mit card games like play
(lp1535
Vused play things like yu gi oh pokemon real card games like card
p1536
aVnice m still selling get group together got guy
p1537
aVoh realized didn respond second question seeing
p1538
aVprimarily business course trying expand customer base
p1539
aVdurak favorite card game moment
p1540
aS'2014,04,30'
I1
tp1541
a(Vlatex mit edu
(lp1542
Vlikely filler page web server predominately private
p1543
aVexactly exists doesn mean exists
p1544
aVthink sipb looking creating online resource latex
p1545
aS'2014,04,25'
I2
tp1546
a(Vunits retain full time student status
(lp1547
Viirc phds fill thg start semester lots us di
p1548
aVissue course phd add drop form online add
p1549
aS'2015,04,20'
I1
tp1550
a(Vvote mit rice business plan competition
(lS'2015,04,17'
I2
tp1551
a(Vmitfcu federal identification number
(lp1552
Vtry calling
p1553
aVwalk ask
p1554
aS'2015,03,16'
I1
tp1555
a(Vlibreplanet free software conference coming mit march
(lS'2015,03,11'
I1
tp1556
a(Vanyone mit interested learning go golang swing event tonight boston golang akamai
(lS'2015,02,24'
I1
tp1557
a(Vgrades get posted internal grade report
(lp1558
Vcheck academic calendar http web mit edu registrar calendar grade
p1559
aS'2014,12,14'
I1
tp1560
a(Vnobelists crayons paper winning portraits
(lS'2014,10,10'
I1
tp1561
a(Vfind free mit id pools play
(lp1562
Valumni pool stata also free mit id
p1563
aVprobably want z center http www mitrecsports com index php aquatic
p1564
aS'2014,10,05'
I1
tp1565
a(Vanyone campus experienced disassembling reassembling ipads
(lS'2014,09,26'
I1
tp1566
a(Vcrypto currency developers claiming mit legit
(lS'2014,08,18'
I1
tp1567
a(Vinternational photo contest mit global education career development
(lS'2014,08,16'
I1
tp1568
a(Vhey guys could really use help survey simple takes less mins ll get nothing return except extreme satisfaction knowing much helped
(lp1569
Vsomehow feel judged partying social media ing much
p1570
aS'2014,08,13'
I1
tp1571
a(Vquestion international students work tutors part time
(lp1572
Vregardless answers get ask mit internati
p1573
aVoh congratulations admission mit see soon
p1574
aVget paid bitcoin
p1575
aS'2014,06,30'
I1
tp1576
a(Vperkins loan repayment
(lp1577
Vcontact directly via mail information need
p1578
aVmonths start start accruing interest unless r
p1579
aVget chance please get link haven able find
p1580
aVmycampusloans think someone else posted think
p1581
aVsure looking information p
p1582
aVthanks info m looking mechanics repayment ther
p1583
aVservicers offer online phone mail method many case
p1584
aVmycampusloans com
p1585
aS'2014,06,24'
I1
tp1586
a(Vquestions college visit
(lp1587
Vdefinitely take advantage prefrosh hosting thing easiest wa
p1588
aVincoming freshman best tours student life videos
p1589
aVincoming sophomore walking infinite sort kind gives
p1590
aVwould recommend guided tour going admissions offic
p1591
aVgo guided tour real conversation tour guide y
p1592
aS'2014,06,22'
I1
tp1593
a(Vclickable mit class names web page
(lS'2014,06,20'
I1
tp1594
a(Vhost rails app mit webspace web mit edu yourkerebosid www
(lp1595
Vhost sites free scripts mit edu http scripts mit edu wh
p1596
aVcannot host www folder might able something wi
p1597
aVuse heroku free industry uses
p1598
aS'2014,06,18'
I1
tp1599
a(Vmit newest sustainability lab set work september
(lS'2014,05,16'
I2
tp1600
a(Vdrop grad student
(lp1601
Vyes course lose graduate stipend health insurance benef
p1602
aVthanks lot reply worried benefits keep
p1603
aVgo back read fine print accepted fellowship
p1604
aVhard say without knowing specifics imagine would
p1605
aVm late party highly doubt d pay money back lef
p1606
aS'2014,05,08'
I1
tp1607
a(Vinternet boy official trailer
(lS'2014,05,05'
I0
tp1608
a(Vmiters using bitcoin launch careers
(lS'2014,04,28'
I1
tp1609
a(Vmit baker piano drop
(lS'2014,04,25'
I1
tp1610
a(Vfrat parties mit
(lp1611
Vregardless frat go please jump open windows
p1612
aVdrunked autodefenestration horrible fate
p1613
aVhttps www youtube com watch v ds onb mic app desktop
p1614
aVmeet guys campus seem cool re fraternity go
p1615
aS'2015,04,01'
I0
tp1616
a(Vactivism
(lp1617
Vwell answer curious though mean unionization
p1618
aVm guessing mean forming labor unions thing us
p1619
aVyes although declining membership specifically though quest
p1620
aVprobably students trying help staff unionize major issue
p1621
aVm alum current staff member see need staff unionize
p1622
aS'2015,02,24'
I0
tp1623
a(Vcourses deal functional programming
(lp1624
Vstructure interpretation computer programs intro sche
p1625
aVsure amazing course coursera https www
p1626
aS'2015,02,23'
I0
tp1627
a(Vtrue two ci h taken year count towards requirement
(lp1628
S''
aVgo ask folks office fwiw double majors also show u
p1629
aVfar know rule two ci h taken semester
p1630
aS'2015,02,06'
I0
tp1631
a(Vmath science evaluator hasn begun evaluation yet
(lp1632
Vtry emailing folks admissions best luck
p1633
aS'2015,01,19'
I0
tp1634
a(Vmit lets talk hiding good stuff
(lp1635
Vwater resources sense departments looked
p1636
aVcivil environmental engineering m looking water fluids people
p1637
aVmight want expand looking departments lot cr
p1638
aVyes seems like people mit water club different departmen
p1639
aVtried checking mit water club http waterclub scripts mit
p1640
aVthanks looking student organizations know faculty
p1641
aVprofessor grossman published use graphene water purificatio
p1642
aVeric adams studied afaik still look
p1643
aVthanks look
p1644
aVsorry m late party always difficult find people e
p1645
aVawesome thanks man found dr hemond parson lab email
p1646
aS'2014,10,18'
I1
tp1647
a(Vll visiting undergrad student september rutgers questions upcoming semester
(lp1648
Vfinding place live asap know students live work
p1649
aVnew brunswick goes well graduate rutgers degree
p1650
aVlab working
p1651
aVhopefully working member energy faculty m gue
p1652
aVstudent discounts worth taking care straightaway subletting th
p1653
aVsite might helpful finding sublet https housing mit edu
p1654
aVfound website unfortunately certificate order
p1655
aS'2014,08,19'
I0
tp1656
a(Vtrouble focusing download focus distractions app
(lp1657
Vgood idea chrome plugin thing websites
p1658
aS'2014,05,17'
I0
tp1659
a(Vstanford says divest coal companies mit
(lp1660
Vwould great set example coal burning ancient te
p1661
aVre talking school cogen plant supplying po
p1662
aS'2014,05,07'
I0
tp1663
a(Vquestions mit
(lp1664
Vll best answer classes normally meet two three times week
p1665
aVthank much answers like sound teal program
p1666
aVteal phasing classes expect
p1667
aVquick correction probably typo changes meaning entirely
p1668
aVthanks catch fixed
p1669
aVteal exists two introductory physics classes also personally desp
p1670
aVclasses follow either mwf tr format meaning class either
p1671
aVthank perfect
p1672
aVll throw bullet point answers knows much original content
p1673
aVpeople seem already gotten everything pretty well heres
p1674
aS'2014,04,26'
I1
tp1675
a(Vapplying transfer student advice comments wanted
(lp1676
Vreal talk transferring mit hard much harder getting
p1677
aVappreciate know odds incredibly low really en
p1678
aVsecond u kasittig comment assuming won get acceptanc
p1679
aVthank advice ll definitely may ask wher
p1680
aVooooooooooooooklahoma privilege seeing us whoop nebraska
p1681
aVvote really wait rematch matte
p1682
aVfirst semester difficult time adjusting higher workloa
p1683
aVtrue know ll future however first semester
p1684
aVbad news mit required equivalent colleges calc iii iv
p1685
aVm taking calc iii much easier calc ii m horrib
p1686
aVgood hear actually case people
p1687
aVhey m also applying transfer end applying gotta judge
p1688
aVdidn apply coming fall plan apply next spring semes
p1689
aVmade decide wait next year yeah feeling tha
p1690
aVwell really made decision want apply transfer bit late
p1691
aS'2015,02,10'
I0
tp1692
a(Vap credits
(lp1693
Vfocusing questions asked anyone know many elective
p1694
aVthanks detailed response correct assuming m
p1695
aVcredits requirement m remembering right credits beyo
p1696
aVtook glance link bottom says unrestricted electives
p1697
aVthings haven changed since ll need units classes
p1698
aVwant sophomore standing yes need
p1699
aVreally say anything answer questions ra applicant
p1700
aVapplying last year school something test prices
p1701
aVhah m still kind bitter years
p1702
aVmember class giving cents spend senior year
p1703
aVpersonally wish taken mit feel like pe
p1704
aVthink http web mit edu firstyear subje
p1705
aVtime sounds like good option though
p1706
aS'2015,01,28'
I0
tp1707
a(Vprospective transfer student questions
(lp1708
Vgo showing improvement high school college good
p1709
aVll coming junior years spend mit accepted m
p1710
aVboat years first school mit al
p1711
aVwould would recommend someone else
p1712
aVd recommend someone else well really depends y
p1713
aVapply probability getting zero otherwise everyt
p1714
aVthink re looking collegeconfidential
p1715
aS'2014,12,14'
I0
tp1716
a(Vapplying internationally
(lp1717
Vfirstly u brogrammer bro said way know won get
p1718
aVway chance try
p1719
aVvisited mit admission blog admission site http mitadmi
p1720
aS'2014,12,11'
I0
tp1721
a(Vplease vote brass rat question robert downey jr ama
(lp1722
Vlkkl
p1723
aS'2014,10,07'
I0
tp1724
a(Vmuch research experience successfully accepted mit grad school
(lp1725
Vsounds like plenty potential letter writers whoever
p1726
aVwell said mit urop failed essentially working
p1727
aVfeel like fairly common letter writers actually know su
p1728
aVanswer question saying hey mit student
p1729
aVhi know college staying
p1730
aVyep m peterhouse
p1731
aVcool oldest one close mine town centre
p1732
aVcheck results gradcafe mit mechanical http thegr
p1733
aS'2014,08,23'
I0
tp1734
a(Vfinding recent finals
(lp1735
Vhttp ocw mit edu courses mathematics differential equations spring
p1736
aVreally shouldn matter diffeq diffeq regardless syllabus jus
p1737
aS'2014,08,04'
I0
tp1738
a(Vstartup embraces talents people autism
(lS'2014,07,28'
I0
tp1739
a(Vsiliconangle covering day long mitcdoiq summit live tang center
(lS'2014,07,23'
I0
tp1740
a(Vthoughts mit alums google helpouts
(lS'2014,05,12'
I0
tp1741
a(Vseven stories shouldn miss week ending may mit technology review
(lS'2014,05,11'
I0
tp1742
a(Vneeds approve cpt
(lp1743
Vfirst step talk iso international students office
p1744
aVcpt
p1745
aVcurriculum practical training thing visa thing
p1746
aS'2015,04,09'
I0
tp1747
a(Vstudent looking answers explanations finished os labs
(lp1748
Vgenerally frowned upon post solutions either code
p1749
aS'2014,11,10'
I0
tp1750
a(Vparty today
(lp1751
Vknow would like think haven heard anything
p1752
aVhello d like extend invitation pants party https
p1753
aValways party going mind http thegboatdotnet fil
p1754
aVsomehow knew exactly gif would
p1755
aS'2014,09,26'
I0
tp1756
a(Vanyone taking options future markets
(lS'2014,09,10'
I0
tp1757
a(Vtwitter chat univision david beck mba social tv world cup
(lS'2014,06,11'
I0
tp1758
a(Vemail forwarding mit account
(lp1759
Vgmail also let select email send send blabla mit ed
p1760
aVos x open terminal application type ssh athena username
p1761
aVcase op wants copies mit mail left mit mail servers
p1762
aVre os x linux distro linerva https
p1763
aVlinerva points athena dialup machines separate dialup https
p1764
aVlink mit info need called splitting
p1765
aVrealize help desk http ist mit edu help sorts
p1766
aS'2014,05,28'
I0
tp1767
a(Vfuture robotics
(lS'2014,05,05'
I0
tp1768
a(Vnight life like frat parties essentially banned foreseeable future
(lp1769
Vre college week half town tons universi
p1770
aVcourse like one biggest exciting aspects c
p1771
aVgo make friends first find people parties come result
p1772
aVtrue ve plenty mediocre experiences frat parties whereas
p1773
aVhahah dorms absolutely parties often crazier frat part
p1774
aVstep one make friends people dorms definitely throw parties vari
p1775
aVlife night life go usual people least kn
p1776
aS'2014,09,04'
I0
tp1777
a(Vmit policy regarding student written content hosted site guy seems written seems justification sexual relationships children third way
(lp1778
Vyep creepy fuck m sure mit really wants get
p1779
aVfree exchange ideas comfort convenient make enough fuss
p1780
aVmit policies http web mit edu policies generally
p1781
aVgraduated still mit website yeah creep
p1782
aVfound old issue tech nov bldg pm male
p1783
aVsection referring
p1784
aVhah mit resident pedophile case liberals long
p1785
aS'2014,08,28'
I0
tp1786
a(Vdigital learning age professor sanjay e sarma
(lS'2014,05,06'
I0
tp1787
a(Vm student spain wants go mit aeroastro x post gradadmissions
(lp1788
Vm sorry breaks threads admissions application review
p1789
aS'2015,04,08'
I0
tp1790
a(Vmit community thoughts aaron swartz
(lp1791
Vopinions think swartz definitely wrong actions didn d
p1792
aVcourse several weeks indictment claimed swartz engaged
p1793
aVthink describing days hassle probably doesn adequately capt
p1794
aVanyone know stolen jstor information downloaded w
p1795
aVtold friends staff basically used mit
p1796
aVprobably mit part community really
p1797
aVgood deed goes unpunished many members mit community felt
p1798
aVtbh know much happened never thought
p1799
aS'2014,11,05'
I0
tp1800
a(Vhey applying early mit visited loved else know
(lp1801
Vmake sure really show interview application stats
p1802
aVyeah seems like every school looks stats thank
p1803
aVpast interviewer agree paragawn prep interview assume
p1804
aVawesome thank much
p1805
aVokay know comment old spent entire interview talkimg
p1806
aVsure region country re go mit
p1807
aS'2014,09,11'
I0
tp1808
a(Vlots leadership bicultural internship experience belt gpa still get mit
(lp1809
Vthink ask r gradadmissions
p1810
aVll give shot thank
p1811
aVm assuming mean undergraduate since mentioned sat grades
p1812
aVwouldn waste much time sat unless ve seen c
p1813
aVmath section sat important many people relatively poor ver
p1814
aVtaken calculus college believe m worried
p1815
aVsats aren important even math section somewhat low level ma
p1816
aS'2014,05,29'
I0
tp1817
a(Vsetting wireless brother printer mit network
(lp1818
Vgo http kb mit edu confluence display istcontrib rcc faq follow
p1819
aS'2014,05,27'
I0
tp1820
a(Viap counting toilets
(lS'2014,04,24'
I0
tp1821
a(Viit grads helped kanpur mechanic son get mit
(lS'2015,04,10'
I0
tp1822
a(Vpeople mit generally average accomplishments feel helped getting prestigious community
(lp1823
Vthink best bet good story way goo
p1824
aVthanks sage counsel made re think m doin
p1825
aVadmissions crazy process stated applicants
p1826
aVlearned stereotypical asian living germany
p1827
aVwell encountered racism first time life guess back
p1828
aVdidn single math science competition high school acdec
p1829
aVwell one seniors school probably joining guys next
p1830
aVweak physique dude weird ideas mit wants
p1831
aVintend macho everything weaker side
p1832
aVokay well long re misguided belief
p1833
aS''
aS'2015,04,09'
I0
tp1834
a(Vtransferring mit freshman year non superhuman
(lp1835
Vanything purpose getting mit almost guarante
p1836
aVsomething re excited
p1837
aVtruly excited get really good look goo
p1838
aVtl dr anticipating going mit make mit end way
p1839
aVaccolades national level competitive level
p1840
aVnope
p1841
aVman im sport
p1842
aS'2015,04,04'
I0
tp1843
a(Vfirst things first
(lp1844
Vrandom house random hall
p1845
aVshall telling sigh somewhere ages ages hence two
p1846
aVfirst didn come bexley building falling apart
p1847
aVspeak senior house never lived e
p1848
aVunreasonable change examples know policy changes
p1849
aVcompletely obvious ve ever stutter https
p1850
aVr shitpost
p1851
aVfair every mit post reddit r shitpost facts
p1852
aVsenior haus residents invite guests per night roast
p1853
aVinteresting amigo ve actually never sport death ve
p1854
aVturn back people http tech mit edu v n letters ht
p1855
aVsub pretentious fuck
p1856
aVwould like clarify edit spent lot time mit
p1857
aVve posted couple times asking stuff wagged
p1858
aVtype stuff
p1859
aVthink long response answered better answer turn
p1860
aVoh thank probably best though mi
p1861
aVdad math professor lot business related work mom
p1862
aVve known van evera long time years could see change h
p1863
aVwell terrible however ve probably heard noam chomsky right
p1864
aVyes heard chomsky never took classes however wh
p1865
aVwouldn know
p1866
aVseems bowing profs tim
p1867
aVgenuinely think administration systematically trying get rid
p1868
aVve actually discussions people know
p1869
aVguess already happened aren aware
p1870
aVimagine lot things happened example c
p1871
aVmeant terms submissiveness make good points bigge
p1872
aVcomments
p1873
aValso really controversial topic reddit might hea
p1874
aVcomments
p1875
aS'2015,03,25'
I0
tp1876
a(Vmit harvard discussion
(lp1877
Vcome cpw decide please points mit
p1878
aVagreed cpw actually show community like especially wit
p1879
aVbest advice tour choose school community ll
p1880
aVwent mit undergrad harvard grad school d go mit al
p1881
aVcouple good reads movingly make case mit http talk coll
p1882
aVharvard undergraduates liberal arts students first
p1883
aVcurrent mit phd undergrad ucla advice attend und
p1884
aVagree advice wholeheartedly especially last point mit isn
p1885
aVconfirm current mit phd student undergrad uc berkeley und
p1886
aVsomeone quora asked exact question two years ago https www quora c
p1887
aValso note crossregister schools re harvard
p1888
aVtbh going harvard probably get cushy job college
p1889
aS'2015,03,19'
I0
tp1890
a(Vhelp android phone
(lS'2015,03,18'
I0
tp1891
a(Vgiving ap calculus bc ap physics c exam increase chances getting admitted mit
(lp1892
Vmean taking really understand idea giving te
p1893
aVwish high school offered since ended take sta
p1894
aVhttps www youtube com watch v hrp nd fbnw http mitadmissions org blog
p1895
aVanother thing consider many topics bc necessary fo
p1896
aVwouldn say taking exams increase chances admission n
p1897
aVphysics c need get exams get credit whatsoever
p1898
aVbc lets skip ab lets accelerated version
p1899
aVmeta question everyone reading terrible q
p1900
aVimo nope get showing re passionate grades bu
p1901
aVproficiency asking questions human consciousness philo
p1902
aVmany qualified people get admitted best alea iacta est
p1903
aS'2015,03,15'
I0
tp1904
a(Vclash clans recruiting
(lS'2015,02,12'
I0
tp1905
a(Vhey mit pretty cool rock band middle east tonight re pm
(lS'2015,01,12'
I0
tp1906
a(Vinternational applicant want know think maker portfolio
(lp1907
Vmuy bueno y muy impresionante talvez elimina una que otra foto porque creo q
p1908
aVmuy bueno ojal los dos quedemos y nos veamos suerte
p1909
aS'2015,01,04'
I0
tp1910
a(Vhelp thermo homework
(lp1911
Vknow system spontaneously evolve minimize chemical
p1912
aVwell definition activity http imgur com phmyha takin
p1913
aVgood first equation showed activity coefficient try get thing
p1914
aS'2014,11,16'
I0
tp1915
a(Veecs engineering mit
(lp1916
Vlong story short opinion sets mit apart students
p1917
aVhi thanks words wisdom look lincoln facilities
p1918
aVlot machine shops campus mean lot one shop de
p1919
aVwasn ee really contact admissions questions like
p1920
aVsir need visit http mitadmissions org visit check shadow
p1921
aVmany answers question perhaps unique resou
p1922
aVhi else could choose integrated master program ee
p1923
aVprogram called master engineering eecs differs
p1924
aVwould mention collaborative environment exactly exclusive
p1925
aVhi m academic administrator eecs undergraduate programs thin
p1926
aVmind asking probably stats like d
p1927
aVmit number ee world tied others course depends
p1928
aVreward grueling years work get tell people w
p1929
aS'2014,10,19'
I0
tp1930
a(Vchance
(lp1931
Vcheck sidebar people actually answer ques
p1932
aVapply chance acceptance also fa
p1933
aVapply numbers
p1934
aVheh like sat whaaat looked recent changes c
p1935
aS'2014,10,17'
I0
tp1936
a(Vvideogames mit highschooler
(lp1937
Vshortages videogames mit play l
p1938
aVthanks hoping something similar college knows ho
p1939
aVblind luck mostly one decide floor live events
p1940
aVpeople thread saying lol destroys academic careers mit
p1941
aVawesome thanks wanted find asking question
p1942
aVleague club take alums didn start playing af
p1943
aVwant well play league seen league consume pe
p1944
aVve seen many people mit get educational experience ruined le
p1945
aVsense school albeit highschool notorious workload
p1946
aVmanage power thing though everyone
p1947
aVsee saying time naturally much f
p1948
aVsee would say one sayings mit sleep stu
p1949
aVthree delicate balan
p1950
aVmit much harder high school honestly naivety hilarious
p1951
aVlol hostility much obviously know workload mit insane p
p1952
aVzero period left pm music practice n
p1953
aVgraduated mit fifteen years ago something one welcomi
p1954
aVoh naivete reason first semester pass record
p1955
aVshort question psets friends come together help
p1956
aVmit collaboration standard practice work toget
p1957
aVcomments
p1958
aVcouple classes got point d work problem
p1959
aVseem missing fact studies mit consume much
p1960
aVswear every time walk kitchen floor half doz
p1961
aS'2014,10,16'
I0
tp1962
a(Vembrace assad boycott israel anthropologists prominent schools signed call boycott motivated desire advance human rights social justice
(lS'2014,10,12'
I0
tp1963
a(Vmit dome
(lp1964
Vbest view inside dome barker library http libraries
p1965
aVreddit place discuss hacking talk friends real life
p1966
aVlol
p1967
aVdeleted
p1968
aVcoffeehouse oh m grad student know classmates
p1969
aVtry doors windows top floor one opens
p1970
aVassuming mean big dome correct easy get
p1971
aS'2014,10,04'
I0
tp1972
a(Vnick pick vote nick schwartz mit class vp
(lS'2014,10,04'
I0
tp1973
a(Vlooking application advice
(lS'2014,09,21'
I0
tp1974
a(Vm applying fall huge confidence issues words wisdom students faculty alum
(lp1975
Vfirst mit school fit mit great bu
p1976
aVwould second everything stimplethorp said interview easiest pa
p1977
aVomigosh imposter syndrome biggest issue right m glad m
p1978
aVidea great made feel study hard focus o
p1979
aS'2014,09,06'
I0
tp1980
a(Vco curricular humanities classes mit harvard
(lp1981
Vcross register harvard take class also mit really go
p1982
aVthing physical visual art classes like painti
p1983
aVmuch say u thesuperkittens didn say ll second mit havin
p1984
aVdeleted
p1985
aVdoesn tell specifically classes available
p1986
aVhttp student mit edu catalog index cgi
p1987
aS'2014,07,10'
I0
tp1988
a(Vfilmmaker sneaks mit infinite corridor shoots huge one direction music video
(lp1989
Vsneaks open corridor p
p1990
aS'2014,06,11'
I0
tp1991
a(Vm college student philippines looking transfer mit odds
(lp1992
Vtransferred years ago though international student accep
p1993
aVthanks think letters recommendation worked show
p1994
aVgiven post frankly clue current situation assu
p1995
aVyeah keep hearing people got grades means
p1996
aVknow many transfer students admitted mit year
p1997
aVapplicants
p1998
aVknow two transfer students fairly well think showed
p1999
aS'2014,06,01'
I0
tp2000
a(Vfive best friends one high school la coming mit fall
(lS'2014,05,22'
I0
tp2001
a(Vget women boards sloan alums talk director diversity
(lS'2014,05,15'
I0
tp2002
a(Vbest worst infrastructure
(lS'2014,05,08'
I0
tp2003
a(Vmit poetry
(lS'2014,04,30'
I0
tp2004
a(Vadmissions class
(lp2005
Vapply early action applied regular action decision
p2006
aVthink mean march th mit traditionally releases decisions pi
p2007
aVoops ve known better dammit knew pi day use
p2008
aVyep tau time perhaps year ll take advantage pi d
p2009
aVah would explain regular well got hopes guess
p2010
aVhey made mistake actually going released march th pi
p2011
aS'2015,02,23'
I0
tp2012
a(Vhi r mit re local nonprofit startup sure could use help
(lS'2015,01,10'
I0
tp2013
a(Vinternet speeds
(lp2014
Vconcerned email said result wi
p2015
aVm completely guessing re trying re conce
p2016
aS'2014,11,15'
I0
tp2017
a(Vstudents get free domain name free ssd web hosting start blog portfolio forum
(lp2018
Vgithub education edit use service hist
p2019
aVgithub education amazing package students learning development
p2020
aVm pretty sure said digital ocean also provides click install
p2021
aVfirst mit student affiliate get free mit edu hostname amp
p2022
aVnamecheap gives free domain year students
p2023
aS'2014,10,14'
I0
tp2024
a(Vbest one sure pink starburst life
(lp2025
Vm confused mean post r mit missi
p2026
aS'2014,10,02'
I0
tp2027
a(Vapplication like
(lp2028
Vfocused unique background story find something interesting exploit
p2029
aVu valcavia future note though sidebar threads adm
p2030
aS'2014,09,04'
I0
tp2031
a(Vgraphic novel kickstarter mit pranks
(lp2032
Vgraphic novel mit press already great book mit hacks pr
p2033
aVsounds like author trying film script initially way
p2034
aVexcept didn disassemble actual cp car put dome
p2035
aVm pretty sure people kept stealing mit campus police sign
p2036
aS'2014,05,20'
I0
tp2037
a(Valumni named time
(lS'2014,05,02'
I0
tp2038
a(Vadvice getting mit
(lp2039
Vhttps www youtube com watch v hrp nd fbnw http mitadmissions org blog
p2040
aVve actually given advice want specific advice
p2041
aVdont focus much school perfect grades sat scores
p2042
aS'2015,03,17'
I0
tp2043
a(Vgetting mit
(lp2044
Vpassionate things give applying shot
p2045
aVhttps www youtube com watch v hrp nd fbnw
p2046
aVassume average mean average mit admission stats someone w
p2047
aS'2015,03,05'
I0
tp2048
a(Viq
(lp2049
Vknow iq tests little well one suited universit
p2050
aVeven people respond iq tests come shapes sizes pret
p2051
aVtook online iq test scored percent
p2052
aS'2015,02,19'
I0
tp2053
a(Vwanted mit alumni
(lp2054
Vlots people go great things happy life spite
p2055
aVmay unpopular opinion among mit people believe qua
p2056
aVhusband mit alum family spent lot time
p2057
aS'2014,12,12'
I0
tp2058
a(Vhard get accepted mit
(lp2059
Vwell aren keeping secret http mitadmissions org apply prepar
p2060
aS'2014,11,09'
I0
tp2061
a(Vneed elite summer programs get mit
(lp2062
Vstats personal experience neither clo
p2063
aVdidn know anybody either
p2064
aVnationally ranked swimmer
p2065
aVnope know percentage overwhelming
p2066
aVcompetitive riding
p2067
aVreally wrong mindset
p2068
aVabsolutely worry statistics like
p2069
aVtitle question definitely need elite summer programs
p2070
aVknow percentages would say well half students
p2071
aS'2014,09,07'
I0
tp2072
a(Vchance please
(lp2073
Vmight want look sidebar posting subject
p2074
aVcourse take people public schools selective ad
p2075
aVll say got sat go public high school got
p2076
aVseriously even bother read sidebar mit students widely
p2077
aS'2015,03,26'
I0
tp2078
a(Vboston bombing suspects accuse mit professor treason
(lS'2015,04,14'
I0
tp2079
a(Vwould mit accept
(lp2080
Vpoint post actually want know chances
p2081
aVokay ll come clean provide info m india gre score
p2082
aVnobody tell get mit get mit simp
p2083
aS'2014,10,24'
I0
tp2084
a(Vlying herpes normal mit students grad school
(lp2085
Vsomething tells much individual wha
p2086
aS''
aVgoogling indicates illegal knowingly transmit std c
p2087
aVlied std would believe phd
p2088
aVwould make connection behavior school might
p2089
aVmight better post subreddits r relationships r l
p2090
aVnah man egg op posting isawyou mit edu
p2091
aVtype moron doesn use condom stranger either go dr
p2092
aVre much better getting lawyer telling people tha
p2093
aVcase occurred california plaintiff respondent patricia behr
p2094
aS'2014,07,18'
I0
tp2095
a(Vharvard professor rebukes mit students
(lp2096
Vnah fwiw anyone always hover link clicking
p2097
aS'2015,04,14'
I0
tp2098
a(Vlooking information
(lp2099
Vnote mit people talking press almost universally ends bad
p2100
aVprivacy security public website melhunt want
p2101
aVpublishing public magazine names attached
p2102
aVre ivy league school useful metric compet
p2103
aS'2014,07,01'
I0
tp2104
a(Vm secure computing network athena kerberos encryption protocol used us military entirely secure
p2105
(lp2106
Vm confused bragging able access public folder
p2107
aVbragging intended take look directory ask
p2108
aVnetwork security intended make sure public things public p
p2109
aVokay ll bite assume re troll first foremost
p2110
aVm sure problem public directory
p2111
aVbad access student account via ssh client btw
p2112
aVentire e mail thread mit students laughing one mit
p2113
aVdear l hacker public folder things readable ther
p2114
aVpublic since re students mit campus cluster workstatio
p2115
aVaccess physical computing facilities access anyt
p2116
aVeven understand definition public something
p2117
aVfirst publicly available data made publicly availab
p2118
aVmakes say quickly
p2119
aVmit hair trigger happened aaron swartz
p2120
aVanything d think mit would reluctant call cops someon
p2121
aVmuch reaction swartz tragedy grief death
p2122
aVmade hyperbolic statement without much basis reality
p2123
aVirony public data statement everyone clearly mis
p2124
aVthink re missing point re required kerberos id
p2125
aVaddition people said elsewhere re also misundersta
p2126
aVunfortunately even pc omigosh guys re gonna die note o
p2127
aVeven weren public folder athena network accessible eve
p2128
aVm course understand course friends isn
p2129
aVhaha lot people knowledge playing defense
p2130
aVheh yeah everybody know infosec would probably make good blackhat h
p2131
aVlol
p2132
aVguise gained access athena mit edu user athena dialup gib mone
p2133
aVtrolling cms project doesn make sense
p2134
aVlearn read
p2135
aVmission accomplished although definitely won posting anything even rem
p2136
aVdeleted
p2137
aVplease little polite us expertise com
p2138
aVvitriol comment helps nobody content useful n
p2139
aS'2014,11,04'
p2140
I0
tp2141
a.