(lp1
(Vfound ithaca craigslist d seeking overpriced housing near downtown ithaca
(lp2
Vf k pam johnson realty places exactly like puts
p3
aVlived pj apartments years cornell never felt unsafe
p4
aVhouse lived ceiling collapsed one bedrooms tha
p5
aVclassic apartment actually black mold problem
p6
aVcsp management asbestos removal living
p7
aVxpost r ithaca
p8
aValready day two
p9
aS'2014,05,13'
I79
tp10
a(Vgrandmother attended cornell got bs chemistry recently found picture took april view clocktower seen arts quad thought fellow cornellians might enjoy
(lp11
Vcool shows boardman hall background demolished
p12
aS'2015,04,20'
I72
tp13
a(Vmicrosoft office free cornell students
(lp14
Vsix years ago damn
p15
aVlifesaver got new laptop week ago buy office
p16
aVexpires graduate re graduate still p
p17
aVmake sure activate graduate
p18
aVthank much great find
p19
aVmuch find actually work department cornell
p20
aVdeleted
p21
aVway bottom graduate leave university y
p22
aVoh rats
p23
aS'2014,05,11'
I57
tp24
a(Vchapter house destroyed devastating fire sweeps stewart ave
(lp25
Vnews ruined rest week gonna go homecoming
p26
aVm going back campus second time years next week
p27
aVrip popcorn
p28
aVawful news
p29
aVseriously bummed glad made back th reunion ho
p30
aVthink go fund raise bring back
p31
aS'2015,04,14'
I55
tp32
a(Vcornell weather cornell cold weather little experience
(lp33
Voh ve never actually weather okay guess re
p34
aVhahaha yes snow may normal thing plus miles wa
p35
aVsnow may bad made worse starts snowing october yes b
p36
aVlike earthquakes anything actually ea
p37
aVthank much post admitted back december
p38
aVaugust ll hot like
p39
aVhumid
p40
aVproblem actually got accepted last december m upstate new y
p41
aVreally reassuring thank much
p42
aVproblem m excited going message need anything
p43
aVithaca unusual temperature think really gets people
p44
aVgood depth guide honestly really doesn warrant mu
p45
aVagree bad many fear know fudge th
p46
aVll bean damn straight
p47
aVmachine washable
p48
aVmountain hardware solid job well
p49
aVquestion canada goose jackets everyone wearing around days r
p50
aVmoney factor good brand make sure get one
p51
aVnortherner judge pretty hard aren necessary unless re r
p52
aVgood advice girls guys women would add get turt
p53
aValso winter clothing completely fine wait re ithaca
p54
aVyeahyeahyeah everyone bitches weather bad cou
p55
aVgets people usually length winters start o
p56
aVyeah best habit checking weather temp precipitation
p57
aVill reply save whole thread later thanks writing u
p58
aVupvote tldr
p59
aS'2015,04,03'
I48
tp60
a(Vstruggle real olin library
(lp61
Vknow finals week issue
p62
aVfirst finals study period ended sunday usual
p63
aVthursday sunday administration conveniently forgot slope day
p64
aVslope day used fall last day classes either way students
p65
aVyes school actively encourages slope day one say th
p66
aVwoah weird friend showed video insta know yo
p67
aS'2014,05,11'
I46
tp68
a(Vcornell university commencement procession leading libe slope ca
(lS'2015,04,09'
I47
tp69
a(Vconvocation ed helms
(lp70
Ved helms best cornell could offer convocation
p71
aVthink nice tongue cheek graduations seem less
p72
aVeveryone talked enjoyed helms convocation speech much en
p73
aVhuh cornellians aren full least didn used
p74
aS'2014,05,25'
I43
tp75
a(Velizabeth garrett usc provost named cornell th president
(lS'2014,09,30'
I41
tp76
a(Vnew lawsuit claims cornell wrongly expelled male student clearly consensual sex
(lp77
Vpreponderance standard seems quite stupid going expel stud
p78
aVtitle ix law federal level requires low level convictio
p79
aVtitle ix requires men women treated equitably require
p80
aVyes order comply title ix princeton adopted lo
p81
aVre really getting one side story article kn
p82
aVdeleted
p83
aVfirst emotion led problems ve outlined manage
p84
aVre hearing one side story sounds like fellow
p85
aValso writeup cornell daily sun http cornellsun com blog
p86
aS'2015,03,22'
I27
tp87
a(Vtoday blow loss dartmouth football team plays columbia next saturday
(lp88
Vcornell football
p89
aVreally
p90
aVcu undergrads even care football grad stude
p91
aVdeleted
p92
aVguess would assume football team cater
p93
aVcornell men track ranked th country last year cross c
p94
aVdeleted
p95
aVaside rutgers played princeton first intercollegiate football g
p96
aVivy league could compete level pre titles
p97
aVdeleted
p98
aVhighlander
p99
aVremember cornell sprint football actually pretty good years back
p100
aVex cu football player know one respects program even enjo
p101
aS'2014,11,08'
I24
tp102
a(Vresults relationship cornell survey
(lp103
Voh reddit hid survey didn know reddit rotates whic
p104
aVreddit quirky like ll add d like need gende
p105
aVinteresting thank putting together
p106
aS''
aVskewed gender ratio typical reddit http imgur com bxemljl png
p107
aVknow basing flairs four subreddits valid way gene
p108
aVneither opt survey useful data points h
p109
aVgreat point
p110
aS'2015,03,10'
I25
tp111
a(Vwitnessed sorts incompetence fall creek bridge
(lp112
Valso stopping car buffalo street hill chat friends j
p113
aVdrive stick cornell thing stopping
p114
aVellen
p115
aVum sorry man name vichet
p116
aVmostly joke ex drove stick around cornell hills kicked everl
p117
aVm amused fact two three ways across campus clos
p118
aVwhole town messed today m going avoid stores rt res
p119
aS'2014,08,22'
I26
tp120
a(Vcornell removes webpage touting power fraternities
(lS'2014,07,31'
I24
tp121
a(Vspring day annual celebration cornell university
(lp122
Vbecame slope day http en wikipedia org wiki slope day history
p123
aVsection history sl
p124
aVinteresting hardcore bands ithaca really cool
p125
aS'2015,04,17'
I22
tp126
a(Vexperience much cornell brand helped terms connections job placement
(lp127
Vgetting cs grad school program highly regarded
p128
aValive growing wouldn say par stanford cornell stud
p129
aVwent cornell instead uc berkeley regret much
p130
aVlive california might get decent aid iirc sta
p131
aVve often thought decision cornell rpi b
p132
aVwent cornell instead uc berkeley regret mu
p133
aVm saying since suck networking anyway going public
p134
aVinteresting range interests would say
p135
aVre thinking intelligently schools mention lik
p136
aVthanks input m also bay area plan return un
p137
aVwanted get away see something different many ways
p138
aVterms entrepreneurial spirit lot growing thi
p139
aVm state cals save k semester perspective differ
p140
aVthanks advice far people concerned m bay area
p141
aS'2015,03,06'
I23
tp142
a(Vmade sports center little trouble big bear
(lS'2014,12,13'
I23
tp143
a(Vlynah faithful hat
(lp144
Vcall ticket office ask might sell one actually
p145
aVshirt ebay http www ebay com itm cornell hockey lynah fait
p146
aS'2015,02,04'
I22
tp147
a(Vpsa club officers cornell club budgets cut year
(lp148
Vcheck pdf values different post source
p149
aS'2014,09,04'
I20
tp150
a(Vcornell staff member implicated unc academic scandal
(lp151
Vwhatever information ms reynolds may pertinent inquiry relates
p152
aS'2014,10,24'
I21
tp153
a(Vtrial cornell ithaca bridge suicide begins
(lp154
Vmean bridge covers like twenty feet gorge wouldn
p155
aVtruly contributory someone committing suicide bridge prese
p156
aVtrue issue isn bridge suicide increase
p157
aS'2014,08,12'
I18
tp158
a(Vregular decision results thread
(lp159
Vaccepted anyone involved classics department pre med
p160
aVpre med dying currently spring break catching studying
p161
aVhey sorry saw thanks response dying doesn sound fu
p162
aVsaid dying personally feel like endless stream wo
p163
aVwow chemistry thing sounds like unique example clas
p164
aVm one anecdotal example may pre med students faring
p165
aVgrats future big red
p166
aVphysics physics aep grad student physics department
p167
aVpure physics m hoping go grad school afterwards hows big phy
p168
aVnice dude gal god knows need female physics majors welc
p169
aVthanks whats difference honors majors also mo
p170
aVuse ap credit physics credit take instead
p171
aVdefinitely definitely take honors make freshmen year immensely chal
p172
aVkeep mind answers perspective grad student
p173
aVphysics years ago served well m inter
p174
aVgot super excited m planning study ece anyone knowle
p175
aVcongrats m junior ece cornell say ece progra
p176
aVthank m extremely interested research advice
p177
aVproject teams actively seek freshmen already enough uppe
p178
aVgreat hear ll definitely looking students rece
p179
aVyeah first semester project team freshman ll receive c
p180
aVokay great thank much answering questions good luck
p181
aVaccepted planning ba computer science current
p182
aVyep m freshman comp sci d say m really enjo
p183
aVthanks much deal undergrad research freshmen get p
p184
aVfar know undergrad research computer science bit different
p185
aVcongrats m cs senior engineering know plenty cs students
p186
aVlooking forward arts crafts
p187
aVaccepted m entomology
p188
aVtransfers well
p189
aVwow released transfer results already
p190
aVm sure yet transfers partially rolling want find l
p191
aVfriend applied transfer knowledge mid april starts
p192
aVthanks information
p193
aVquote haha good luck application
p194
aVcourse congrats
p195
aVphysics department great handle couldn mech e
p196
aVlike good challenge talked prof last monday cornell days
p197
aVgt option cals
p198
aS'2015,03,31'
I17
tp199
a(Vgot accepted cornell vet school m hunt grad student roommates
(lp200
Vcommuting parking passes normal spots far
p201
aVthanks advice
p202
aVhey m current vet student think best bet housing
p203
aVfeel like non vet students told m going many
p204
aVpossible non vet students get list serv could someon
p205
aVhttps sf sas app serverfarm cornell edu och faces adf task flow ad
p206
aVthanks looks like list serv isn working least database
p207
aS'2015,04,16'
I14
tp208
a(Vpotato captured history found walls fall creek house last month
(lp209
Vhttp cdsun library cornell edu cgi bin cornell d d cds
p210
aVhttp cdsun library cornell edu cgi bin cornell d d cds
p211
aVcool
p212
aVthanks know anyone tell pins
p213
aVcornell might passing interest given w
p214
aS'2014,12,17'
I13
tp215
a(Vmay cornell dean nonlitigable revelry angry
(lS'2015,03,30'
I14
tp216
a(Vsign part cornell first large scale hackathon bigred hacks cs ece students
(lp217
Vtitle post seems imply meant students majors
p218
aS'2014,05,16'
I14
tp219
a(Vbest places eat
(lp220
Vsolid pho restaurant called saigon kitchen commons re
p221
aVcommons u irelli means west end state street gimme c
p222
aVlouie lunch patrick ewing tour de france ctb taste thai
p223
aVshortstop asian noodle house pines statler salad ithaca ale house di
p224
aVale house damn fine burgers
p225
aVreally anything good food wise recommend collegetown ex
p226
aVnines would like word pizza selection
p227
aVthick layer flavorless dough appears hours ve ordered
p228
aVymmv like nines pizza may deep dish expert k
p229
aVcampus mac cafe statler decent sandwiches pastas
p230
aVcollegetown fantastic place bubble tea better nyc
p231
aVkung fu tea open good pacific cafe imo worst boba
p232
aVctb euro expensive filling also taste thai gr
p233
aVlike coffee side stella asian noodle house veganic ct
p234
aVautumn sky ctb great rosemary focaccia honey cup must
p235
aVcircus truck best bang buck ithaca far always stop b
p236
aVhot truck
p237
aVmuch worse louie every single way
p238
aVtalking another alum hot truck one
p239
aVunpleasantly hard bread canned tomato sauce lived nex
p240
aVmany fond memories wgc pmp
p241
aVcampus loved martha spinner nacho campus ale house
p242
aVfine line bistro
p243
aVve oddly missing cafe pacific last years sort
p244
aVasia cuisine best sushi town
p245
aVhouse special lo mein apollo
p246
aVbagels ctb people never good bagel
p247
aVeverything misses mark town really
p248
aVsumo sushi wegmans chinese food
p249
aS'2015,02,05'
I12
tp250
a(Vemeritus professor bernd lambert passed away
(lS'2015,01,08'
I13
tp251
a(Vloner
(lp252
Vll pm facebook
p253
aVwithout knowing re used able go noyes f
p254
aVactually clarify sound like jerk m current co
p255
aVproblem harder things like live far ca
p256
aVclasses taking d
p257
aVhey python m struggling calc spanish biggies
p258
aVm unfortunately classes frie
p259
aVengineering right working switching engineering isn fo
p260
aVnope humec cue stereotypes
p261
aVdream college would love love love part y
p262
aVwell m pre med everything difficult humec mixture real
p263
aVm really interested human development particularly cognitive developmen
p264
aVwell poop sucks also think internal transfer process really
p265
aVcompletely agree really frustrating apply like m new stude
p266
aVcomments
p267
aVplanning cs major
p268
aVplan freshman quickly learned wasn thing
p269
aVmight want think want stay engineering makin
p270
aVdefinitely know want engineering m playing around som
p271
aVhey re struggling python come consulting hours particul
p272
aVthanks feel lost feel embarrassed come ll
p273
aS'2014,11,07'
I12
tp274
a(Vruloff sale
(lp275
Vsad see place go definitely bar seemed like mainstay col
p276
aS'2014,09,02'
I13
tp277
a(Vvote ithaca
(lp278
Vm leaving ithaca salt lake city august needless say ve
p279
aVwell ithaca lost m still curious shall named loc
p280
aVperfectly honest really beautiful city really well located wi
p281
aVwell ithaca anti little hotbed liberalism mos
p282
aVcomparing populations two cities didn badly
p283
aVlost guys although really tell final round must wor
p284
aS'2014,06,08'
I13
tp285
a(Vhappened ezra hub
(lp286
Vshut negative shitty redirect cornell edu
p287
aVthought admin shut several reasons girl knew gav
p288
aVyeah admin pretty much reasons gone
p289
aVthought good way quarantine frat douches subs
p290
aVtl dr got tired decided move stopped apache
p291
aVadmin shut guess
p292
aVdeleted
p293
aVyo real fratstar would time stupid petty chitty chitty
p294
aVheard cornell bought m assuming joke however ra
p295
aVcornell bought tree fiddy cash equity
p296
aVconfirm tree fiddy quit microsoft moved hawaii
p297
aVstay safe
p298
aS'2014,05,17'
I12
tp299
a(Vtrivia night fundraiser ithaca high school cafeteria thursday
(lS'2015,04,21'
I13
tp300
a(Vadvice freshman o week rest year
(lp301
Vgo social hole room take advantage sho
p302
aVseriously get know roommate discuss compromises things l
p303
aVwear condom times
p304
aVmake point finding exactly nice bathrooms campus ar
p305
aVll handle astronomy building second floor re dude two stal
p306
aVdont suck
p307
aVwear class shirt everywhere o week especially
p308
aVpolite bus rider get townhouses appel get
p309
aVfind clubs re interested chess club great part expe
p310
aVadd contacts add ton make note hell
p311
aVgo every night week o week one best weeks year
p312
aVlanyards class shirts dope definitely wear times
p313
aVenjoy o week hill
p314
aVdonlon great dorm socializing though newer dorms much nicer
p315
aVtoday must move enjoy o week o week best way fou
p316
aVwant explore campus new friends challenge find
p317
aVimportant question freshman go get shitfaced o
p318
aVhonestly get shitfaced simply get know people great mixing
p319
aVcoincedence m moving donlon friday
p320
aVfind open party collegetown plenty
p321
aS'2014,08,18'
I13
tp322
a(Voops cornell ethics board pre approve facebook mood manipulation study
(lp323
Vdeleted
p324
aVwasn determining got clicks attempting alter
p325
aVapproved irb also ap
p326
aVhttp www irb cornell edu training citi cornell policy requires
p327
aVsaid thought required irb approval
p328
aVfact wasn clear beforehand isn excuse seek ap
p329
aVm saying
p330
aVfail see point record seems like
p331
aVyes
p332
aS'2014,07,03'
I14
tp333
a(Vwould differently
(lp334
Vwould study join clubs play far fewer video games
p335
aVless reddit would helped
p336
aVthankfully didn know reddit time m sure existed
p337
aVve taken ap bio place bio ve taken ap english pla
p338
aVexpand specifically summer reading assignment orien
p339
aVsummer reading assignment interesting idea ultimately o
p340
aVathletic courses took one best fees
p341
aVstudy take classes things interested socially d h
p342
aVd less reclusive freshman year good group friends really
p343
aVnever went gorges went waterfalls
p344
aVsurround people different parts campus eas
p345
aVmain advice d give didn take ap bio calc bc
p346
aVsounds like solid advice cheers aswell
p347
aVstudy hard relax harder
p348
aVhesitate reach professors help need
p349
aVinternal transferred changed majors freshman sophomore year took
p350
aVmajor originally
p351
aVoriginal graduating orie going finance post graduation
p352
aVthought orie best major studying finance
p353
aVd assume aem cals pam che would easier
p354
aS'2015,02,19'
I11
tp355
a(Vgrad students happy cornell ithaca overall biology biomedical dept
(lp356
Vgrad students aren happy anywhere
p357
aVcampuses ve visited cheerleader type students super excited
p358
aVecho explanation provided wuboo
p359
aVisn true m nyc campus good majority phd student
p360
aVtough make general statements grad student experiences
p361
aVthank makes lot sense heard re
p362
aVstill pissed pay year dental cornell
p363
aVcoffee antiseptic anyway
p364
aVlot depression comes long winters small town inev
p365
aVlots drinking
p366
aVgetting phd draining teaching taking courses researching wri
p367
aVeh experience people say think way easier
p368
aVglad enjoy d stop
p369
aVgraduated
p370
aVeveryone goes trials triumphs grad school exception qu
p371
aVundergraduate cornell great school quality resea
p372
aVdefinitely helpful asked around thing people complai
p373
aVm grad student year program wish could spend years h
p374
aVgot accepted bme phd happy read responses
p375
aVreally want go cornell meeting student bme bbs
p376
aVm first year grad student engineering department love
p377
aVwow didn tell us visit got accepted
p378
aVgood luck questions feel free ask recruited
p379
aVphd mat sci happy think lot came d
p380
aVthank response plan working really hard matter
p381
aVunfortunately rent comparison longer holds grad students
p382
aVouch problem lots people talked people live alone b
p383
aVcostly live alone ithaca youll prob shelling close
p384
aVbet heating costs insane well
p385
aVbad depending live month winter
p386
aVcurrent grad student bee would give experience b others
p387
aVthanks info noticed mentioning gyms everyone mentioned o
p388
aVhealthcare actually great dont know paying copay pay
p389
aVd suggest looking nyc campus weill people happ
p390
aVm cities re draining d prefer city access
p391
aVfelt way applied certainly plan moving
p392
aVgood point m definitely way nature m trying identify
p393
aS'2015,02,02'
I12
tp394
a(Vtrivia night fundraiser ithaca high school cafeteria tuesday
(lS'2014,11,16'
I13
tp395
a(Vquestions life cornell
(lp396
Vmany people hardest part ithaca winters lack sun f
p397
aVavoid sad eating something
p398
aVcould reduce risks sad exercising eating balanced diet
p399
aVnutrition food particular exercising indoor exercising
p400
aVgraduated years ago ll try answer m
p401
aVcurrent senior cold wintertime go low
p402
aVcornell cold winter advice make friends northerne
p403
aVusage cap gb month think true couple years
p404
aVmostly good info disagree cornell doesn like
p405
aVgood point never moved vet school good hear insider
p406
aVregarding ve known floridians cornell none frozen
p407
aVyeah weather gets cold ll get used something
p408
aVcold well ve lived ithaca whole life gets pret
p409
aVdoe get pretty damn cold people said floridian
p410
aValso floridian attends cornell ft lauderdale
p411
aS'2014,10,31'
I11
tp412
a(Vcornell sued lights trail death nothing bac
(lp413
Vm still new seems like drunkenly walking gorges ba
p414
aVdude bac think read drunk m surpris
p415
aVwalked exact path night hundreds times sometimes little dr
p416
aVtragic accident lawsuit fucking absurd since
p417
aS'2014,10,12'
I13
tp418
a(Vhistory cornell lecture
(lp419
Vcornell doubt anyone would really question
p420
aVlinguist think phrase face time associated cornel
p421
aVday arrived august ras rah rah guides counsel
p422
aVdeleted
p423
aVcurrently senior dyson school ve heard face time buzzword
p424
aVmany bars located collegetown
p425
aVm drinker never bars however remember du
p426
aVgates absolutely huge back told dunbars las
p427
aVruloff close
p428
aVhowever owner ctb recently purchased business w
p429
aVaww well least reopening great burgers
p430
aVgeneral consensus greek life time greek
p431
aVquite popular interest think eve
p432
aVthats really interesting continued many late night saf
p433
aVfirst arrived legal drinking age changed
p434
aVpercentage students greek
p435
aVgreek americans make us population d think
p436
aVmeant frat sorority haha thanks reply
p437
aVone bit cornell history read biography hugh troy http
p438
aVhugh troy https en
p439
aVgood old corey ryan earle great human even better cornellian
p440
aVgreat beard
p441
aS'2014,09,20'
I9
tp442
a(Vruloff closes doors
(lp443
Vhorseshit
p444
aVgood burgers back
p445
aS'2014,09,01'
I12
tp446
a(Vy recognize crest cool cornell stein found
(lp447
Vseal serpent society one frats north campus h
p448
aVindeed brother alumnus find
p449
aVthrift store dc thought looked awesome could sell
p450
aVpreferred method payment
p451
aVseal serpent htt
p452
aVmany thanks friend
p453
aS'2014,07,03'
I9
tp454
a(Vthings cornell summer
(lp455
Vgo sailing http sailing athletics cornell edu
p456
aVdude much grew finger lakes went cornell obvious
p457
aVgrassroots music festival gorge jumping swimming water sports cayuga
p458
aVbasically go outside find people people nerds anyway
p459
aVone club d recommend anyone summer cornell
p460
aVcheck cornell dragon boat club search facebook paddling tea
p461
aVgraduate student post doc check dollar bears tgif l
p462
aVfarmers market every saturday morning
p463
aS'2014,06,15'
I10
tp464
a(Vmiss denice cassaro
(lp465
Vpretty sure official denice cassaro fanclub complete reunion
p466
aVgraduated three years ago still get
p467
aVfinally made stop accidentally unsubscribed every list
p468
aVlol d
p469
aVreplied email month freshman year asking removed
p470
aVremoved list serve freshman year impossible
p471
aVscarcasm sheldon
p472
aVput belongs spam folder
p473
aS'2014,05,22'
I11
tp474
a(Vswimming gym pool free students
(lp475
Vpools free ever went helen newman
p476
aVpretty sure still works way
p477
aVhttps recreation athletics cornell edu hours facilities facilities cornel
p478
aVone pools teagle used water polo frequently may b
p479
aVpools size
p480
aVthink need pay gym membership pool may open hou
p481
aS'2015,03,14'
I9
tp482
a(Vneed ja advice
(lp483
Vadmit drinking even beer might al
p484
aVprobably won beat contact judicial codes counselor http
p485
aVmessed lots people urinate public get caught sho
p486
aVshow contrition times accept whatever punishment hand
p487
aVseriously gave hard time sorry
p488
aVlegal advice witnessed alleged offense one
p489
aVcu cop nobody else
p490
aVreally good lawyer office seneca red brick bui
p491
aVpee vinnie see
p492
aS'2014,09,06'
I9
tp493
a(Vadmitted physics student question
(lp494
Vadmitted cas pursuing physics recently switched aep
p495
aS'2015,04,19'
I10
tp496
a(Vstuck campus get store launching kluster allow classmate already going grab
(lp497
Vmanaging business going real klusterfuck
p498
aVlook forward proving wrong
p499
aVsee wine spirits screenshot thoughts ll
p500
aVthank feedback answer concerns point point
p501
aVheads belle apps http www belleapps seems trying
p502
aVthank heads
p503
aS'2015,03,16'
I10
tp504
a(Vopt single dorm
(lp505
Vsingle freshman year great experience w
p506
aVsingle first year lucked like
p507
aVlol really luck mews
p508
aVbad think walked new buildings north times
p509
aVweigh risks benefits roommate single
p510
aVroommate first year socialization also th
p511
aVlot friends hang lounge unit friends
p512
aVpretty social going wanted roommate roommate
p513
aVsingle two months time cornell mobility
p514
aVassigned single worked better long run
p515
aVtransfer
p516
aVsince awhile since attended policies may changed
p517
aVget placed west freshman
p518
aVmisread comment assigned north stayed moving
p519
aVside note request single doesn seem like alw
p520
aVtop comment request single doesn mean
p521
aVhonestly worried things freshman year college
p522
aVdeleted
p523
aVdogs aren allowed seriously far norm mo
p524
aVdeleted
p525
aVmade comment saying get double reminded girl uni
p526
aVreally going matter socially first couple weeks sc
p527
aVthought wanted roommate coming college got put triple
p528
aVsay ever happy roommate
p529
aVyes even good friends rooming together worse living
p530
aVabsolutely understand might little worried
p531
aS'2015,02,10'
I10
tp532
a(Vnytimes m b programs start follow silicon valley data age
(lp533
Vaem undergrad env eng minor ended series techni
p534
aS'2014,12,26'
I9
tp535
a(Viceland president gave speech cornell geothermal energy
(lp536
Vreal ivies booked
p537
aVpost history seems indicate go nc state wasn aware
p538
aVbelieve m posting home connection tying noose
p539
aVthread linked elsewhere reddit r shitfoxh er
p540
aVhaaaaaaaaatteeeerrrr
p541
aVknow stung
p542
aVactually laughed clearly idea cornell one
p543
aVlol ofc go state school
p544
aVum snark aside went bottom tier state school undergrad befor
p545
aVdefine bottom tier
p546
aVcuriosity checking cornell subreddit dont g
p547
aVknow patels go m waiting answer though
p548
aVcool cool
p549
aS'2014,11,29'
I8
tp550
a(Vsy katz parade stops fifth avenue traffic nyc
(lp551
Vdeleted
p552
aVtouche
p553
aS'2014,11,18'
I8
tp554
a(Vdc
(lp555
Vah remember dc back days still hard drives full
p556
aVbelieve
p557
aS'2014,10,02'
I9
tp558
a(Vbest sunny place study campus
(lp559
Vm engineer well absolute favorite place study readi
p560
aVbig thumbs snee reading room plus go look seismog
p561
aVcame say spent lot afternoons reading roo
p562
aVpsb second floor mind noise goldie rush hour
p563
aVve couple months opinion limited gates hall
p564
aVbrowsing library wsh nice seating arrangements near windows
p565
aS'2014,09,29'
I9
tp566
a(Vbill gates bailey hall tickets
(lp567
Vsupposedly limited number tickets door day
p568
aVlab line since doors open
p569
aVone m willing sell wanted go friends didn get
p570
aVmuch
p571
aVever since heard someone willing buy morning lo
p572
aVthanks response thanks ticket good luck selling
p573
aVthanks hopefully ll find someone wants badly enough
p574
aVm interested sent pm though
p575
aS'2014,09,25'
I9
tp576
a(Vbroke
(lp577
Vmajoring try finding job relevant major u
p578
aVelaborate m interested studying chemistry
p579
aVlink search employment become student http
p580
aVfind campus job problem getting cushy o
p581
aVspeaking someone got library job freshman year got year
p582
aVlike others said cushy jobs nice require get early fin
p583
aVduly noted ironically reason need job probably ne
p584
aVagree lot sentiment people putting b
p585
aVcomputer science major worked computer lab first two ye
p586
aVeligible work study student usually checked http
p587
aVtry applying cfc cornell fitness center starting wage better com
p588
aVtry job risley dining hall re usually need people work
p589
aVdespite may think working dining halls great job p
p590
aVlisten person dining halls worst possible jobs campu
p591
aVwork dinning hall north worked one cen
p592
aVworked cornell annual fund awesome worked hours
p593
aS'2014,07,12'
I10
tp594
a(Vhi got admitted college engineering questions
(lp595
Vgraduated b computer science since curriculum pretty
p596
aVece confirm
p597
aVhey say hours week include time
p598
aVdeleted
p599
aVwildly
p600
aVincluding classes worries somebody told
p601
aVgood news
p602
aVthanks lot really helpful also thinking giving
p603
aS'2014,06,03'
I10
tp604
a(Vsummer tennis
(lp605
Vopen courts strewn around campus sure know leas
p606
aVtwo open courts north campus risley appel also know o
p607
aS'2014,05,05'
I9
tp608
a(Vtransfer student questions
(lp609
Vcame arts sciences sophomore year great
p610
aVdepends like things competitive difficult
p611
aVknow exist know website managed st
p612
aVlot transfers events transfers f
p613
aS'2014,05,03'
I7
tp614
a(Vnorthern apartments
(lS'2015,04,23'
I8
tp615
a(Vexactly weather
(lp616
Vha ha ha everybody else trying get come snowed may
p617
aVlies negative every night like two weeks straight january m
p618
aVpast february apparently coldest february month record ith
p619
aVwasn adjusted shift measurement methodology though switch
p620
aVspoken like somebody never spent summer ithaca summers
p621
aVunless re deciding cornell stanford duke somewhere similar
p622
aVwinters absolutely awful especially past one yo
p623
aVclassmates wimps also students places like florida
p624
aVm midwest ithaca worse
p625
aVm chicago ithaca except hills
p626
aVdoesn snow april may chicago hills make huge difference
p627
aVdoesn snow april may chicago yes
p628
aVna
p629
aVhmm make interesting points ll think
p630
aVagree handle weather re kinda wimp
p631
aVfreezing dont let people bullshit say isn bad
p632
aVcoming
p633
aVdallas texas exactly area experiences harsh weather snow
p634
aVve lived upstate life m used long re prepar
p635
aVaren bitch got second dui driving company car m
p636
aVnope sorry one
p637
aVbitch m thinking huge skank gay ass heart tattoo
p638
aVok answer re looking m actually going po
p639
aVwow thanks ll definitely prepared cold win
p640
aValright im gonna reply future reference thank writi
p641
aVwish luck u wtfisdisreal
p642
aVright beautiful best season fall spring hit miss
p643
aVre concerned weather maybe dont come
p644
aVdepends brutally cold winter windchill made
p645
aVweather pretty much anywhere else northeast winter temps
p646
aVundergraduate graduate student grad students get stay
p647
aVm going first year student
p648
aS'2015,04,02'
I6
tp649
a(Vdc still exist
(lp650
Vnope cornell got rid two years ago
p651
aVfalse working last year
p652
aVguess ask friend used run server
p653
aS'2015,04,01'
I8
tp654
a(Vwrestling club
(lp655
Vwent several times last two years times like hour
p656
aVhttps www facebook com cornellclubwrestling
p657
aVyeah saw page emailed email address two days ago re
p658
aVbreak lot people won paying much attention email
p659
aS'2015,03,26'
I7
tp660
a(Vgirlfriend visiting first time cool ideas places check dates
(lp661
Vclocktower nice open ithaca commons lot nice shops
p662
aVmake reservations clocktower
p663
aVchimes concert schedule http www chimes cornell edu schedule p
p664
aVscience center fun even children cornell c
p665
aVdefinitely check plantations weather nice enough even
p666
aVcar could always go taughannock see waterfal
p667
aVtaughannock rhymes organic
p668
aVoh could forget pines burger definitely good recommendation
p669
aVsoooooooo weather isn great plantations beautiful
p670
aVthanks recommendations winery check
p671
aVm originally keuka lake ve got lots recommendations
p672
aVbellweather sheldrake thirsty owl favs go cayuga wine
p673
aVsheldrake good suggestion know two
p674
aVithaca falls good place easy quick walk horrible
p675
aVbrunch carriage house
p676
aS'2015,03,10'
I8
tp677
a(Vrelationship cornell quick survey
(lp678
Valso publish results people interested
p679
aVplease
p680
aVquick survey
p681
aVmissed postdoc even though re considered staff still think
p682
aVapologies
p683
aVproblem m curious see results case re gonna share
p684
aVdeleted
p685
aVsee points tried keep survey impersonal possible thoug
p686
aS'2015,03,08'
I8
tp687
a(Vanyone used craigslist sell campus allowed good place exchange
(lp688
Vwould allowed closed campus something literal
p689
aVdepends re selling assuming something legal ve done
p690
aVbought dslr via craigslist never used
p691
aVcraiglist ithaca decently actice also try buy sell
p692
aS'2015,02,15'
I9
tp693
a(Vinternet like cornell
(lp694
Vlived bauer decade old last year got mbps
p695
aVbauer remember days court resort wing ren
p696
aVups downs http imgur com byxg k
p697
aVlive one program house low rises wifi vary extremel
p698
aVdeleted
p699
aVdownloaded gb today mbps bytes bits
p700
aS'2015,01,27'
I8
tp701
a(Vquestions dorm hall showers bathroom
(lp702
Vve lived mews suite students bathroom
p703
aVthank much idea wasn really clear may
p704
aVobviously bathroom great keep
p705
aVgreat thank information
p706
aVget dorm communal showers purchase bathrobe going
p707
aVadditionally lived donlon hall freshman year coed floors co
p708
aVgirls dorm balch lived freshman year
p709
aVdorms less communal example high rises townhou
p710
aVclara dickson co ed dorm separate bathrooms men wo
p711
aS'2014,12,16'
I9
tp712
a(Vurgent ride syracuse
(lp713
Vcall green hornet see work kind deal drive
p714
aVcornell deal zimride log cornell portal
p715
aS'2014,10,12'
I7
tp716
a(Vfoliage ithaca
(lp717
Vgorges
p718
aVgoing say mediochre minds think alike
p719
aVleaves turning early year already peaked higher elevati
p720
aVnice map ll check next week hopefully almost peakin
p721
aVactually recent pics http instagram com cornelluniversity h
p722
aVthanks really helpful looks like colors haven peaked yet
p723
aVpics please
p724
aS'2014,10,03'
I9
tp725
a(Vcornell president david skorton takes als ice bucket challenge
(lS'2014,08,28'
I6
tp726
a(Vfreshman dorms
(lp727
Vexplore page http living sas cornell edu live wheretolive res
p728
aVspecific questions dorms
p729
aVmany years ago lived sheldon court freshman best ever since
p730
aVsheldon court highly recommended far m aware nort
p731
aVcorrect freshmen live together north outside progr
p732
aVcheck cornell housing sheldon court cascadilla
p733
aS'2014,06,29'
I9
tp734
a(Vquestions lindseth climbing wall
(lp735
Vhey actually work notes re cornell affiliate
p736
aVguys sell climbing card found semesterly climbing ac
p737
aVyeah sell semester passes year round annual passes fall ca
p738
aVyet climb summer coming summer woul
p739
aVclimb often work lindseth people pretty friendly lindseth
p740
aVlocal gym test really basic e tie figure gi
p741
aVanswered question belay test let know help
p742
aVsaw thanks looks kinda like granite m
p743
aVthanks responses everyone m given student card got
p744
aS'2014,05,08'
I9
tp745
a(Vlooking something fun friday nights come check mafia club
(lp746
Vclub
p747
aVmurder people obviously
p748
aVrun summer
p749
aS'2014,04,25'
I8
tp750
a(Vincoming grad student questions
(lp751
Valso incoming grad student ithaca last weekend find
p752
aVfinished phd last year confirm everything said
p753
aVguy lies
p754
aS''
aVoutgoing grad also recommend downtown
p755
aVcorrect living downtown fall creek way go especially
p756
aVcurrent grad student highly recommend downtown anywhere near commons
p757
aVlate buses run run weekends
p758
aVroute runs think doesn run weekends take
p759
aVok cool thanks haha ll trying keep hours sane much humanl
p760
aVlive near bus stop stops every minutes way live d
p761
aVbike hills snow year power ya
p762
aVbad biking snow need special tires
p763
aVsnow okay hills problem ice winter makes
p764
aS'2015,04,16'
I6
tp765
a(Vbest bars
(lp766
Vreally depends type crowd want around near com
p767
aVchapter house always d go little subdued fantastic b
p768
aS''
aVused work pixel hear gone
p769
aVhalf true http cornellsun com blog new eddy street complex
p770
aVdamn thinking heading town summer kick around o
p771
aVve years changed dramatically since first came
p772
aVsaddest thing ve heard today commons something cheri
p773
aVgone whole project reinvigorate plac
p774
aVremember rents commons already way high
p775
aVoh yes back december business owners ones left pu
p776
aVunfortunately chapter house large fire last night fa
p777
aVsilky jones bandwagon commons popular silky sometimes mu
p778
aVbandwagon plays music sometimes bit different re als
p779
aS'2015,04,07'
I7
tp780
a(Vm living university ave next year part cook house m wondering anyone lived past could share like
(lp781
Vlived area couple years going lot d
p782
aVfeel like could said dorm west
p783
aVmean yeah campus housing area anything lower un
p784
aVyes wifi location decent minute walk alice cook house
p785
aVlot better place live pretty much year ll
p786
aVpreach
p787
aVparticular makes say
p788
aVd also like know ll living several fr
p789
aS'2015,03,13'
I7
tp790
a(Vcornell
(lp791
Valso run satire newspaper high school d like something
p792
aVmake different accounts different colleges
p793
aVdifferent accounts reddit restriction many posts
p794
aVok sounds good wondering
p795
aVre talking specifically satire think yeah
p796
aVhttp en m wikipedia org wiki cornell lunatic
p797
aVnon mobile http en wikipedia org wiki cornell lunatic http en wiki
p798
aVcornell review another good one
p799
aVgo dairy bar walk around beebee lake walk slope see
p800
aVbeebe lake
p801
aVback freshman didn dairy bar
p802
aVfreshman year rest time closed fo
p803
aVelse http imgur com vke jnq visiting
p804
aVdifferent accounts reddit restriction many posts
p805
aVvisiting group parents definitely walk around campus try
p806
aVtrails run gorges collegetown would b
p807
aVeat lunch louie lunch truck
p808
aVbetter worse hot truck
p809
aVlouie hot truck great different hot truck open f
p810
aVgo frat party check level b eat moosewood shopping
p811
aVone choose wisely
p812
aVre musically inclined want neat view climb clo
p813
aS'2015,03,05'
I8
tp814
a(Vtake regular math track engineering math track
(lp815
Vve heard regular math track courses actually less well present
p816
aVve heard regular math track courses actually less well pr
p817
aVmathematics matter discrete mathematics
p818
aVengineering math like really difficult median grade lo
p819
aVdidn really find difficult saying cover theo
p820
aVdefinitely agree linear algebra discrete math important f
p821
aVincoming freshman way early worrying
p822
aVtake real math track employers software industry won care
p823
aVre kidding right engineering math track recommended
p824
aVundergrad grad school work computer science graduated
p825
aVwon matter track re physics majors pretty similar
p826
aS'2015,03,05'
I7
tp827
a(Veng major take phys pass fail u even though need
(lp828
Vanswering question research engineering students ma
p829
aS'2015,03,04'
I7
tp830
a(Vlow bargain m trying sublet place summer
(lp831
Visn really one set price anyone tell low get
p832
aVdefinitely check frats especially ve got friends liv
p833
aVhouse done less ve issues subletters breaking
p834
aVspell late april early may people leave
p835
aVamerica go low like seriousness depends
p836
aVask friends may give best deal trust ca
p837
aVpeople try charge discount sublet apartment others
p838
aS'2015,02,26'
I7
tp839
a(Vslope day artists
(lp840
Vchance rapper
p841
aVamazing live
p842
aVchildish gambino please
p843
aVkanye pls would amazing childish gambino would great kdot
p844
aVper question handful people know might release sur
p845
aVll someone bad put garrison charge well known
p846
aVr garrisonlovelythings
p847
aVweird al yankovic
p848
aS'2015,02,14'
I8
tp849
a(Vanyone selling hockey tix colgate game tonight
(lS'2015,01,31'
I7
tp850
a(Vstaying winter
(lp851
Vlittle late m new years gathering maybe
p852
aS'2014,12,22'
I9
tp853
a(Vphishing calls claiming cornell financial aid
(lp854
Vhmm knew information might legit saf
p855
aVm full fellowship m graduate student funding goes throug
p856
aVah good know information scary possible
p857
aVwanted post hopefully try n
p858
aVdeleted
p859
aVlooked nothing listed tried calling back goes
p860
aValso received call prob last week m also boat
p861
aVverifying got call ers think legit provide
p862
aVpossibly seems plausible made think wasn legit tha
p863
aS'2014,08,12'
I6
tp864
a(Vvisiting cornell weekend
(lp865
Vgrubhub com everything would deliver ithaca pizza
p866
aVpizza gotta go pudgies
p867
aVpizza aroma best pizza ithaca downtown cornell underg
p868
aVsecond pudgies
p869
aVpudgies awful want pizza guess ctp know
p870
aVwyngz ithaca
p871
aVpudgies worst pizza northeast better closer cornell
p872
aVtaste thai also good
p873
aVsammy pizzeria commons college town pizza wings ithaca
p874
aVgood indian food try sangam
p875
aVdp dough late night calzones wings campus head
p876
aS'2014,07,31'
I7
tp877
a(Vbeautiful scenes campus
(lp878
Vbeebe lake good start trail goes way around
p879
aVreally beautiful scene campus want see something
p880
aVlook google maps satellite view see pretty place
p881
aVthanks try figure house steam tunnels
p882
aVget friend two wander around campus occasionally consider
p883
aVfavorite views campus surrounding landscape staircas
p884
aVview cayuga lake surrounding area top floor jo
p885
aVwalk mcgraw tower
p886
aVaddams family house around m mistaken
p887
aVeasy get go top libe slope sunny day bre
p888
aS'2014,07,28'
I8
tp889
a(Vfree ride tcat nights weedends
(lp890
Vfree cornell students pm weekends ride tcat
p891
aVlong free first time incoming students year regardless w
p892
aVtcat bus billing schedule works one august next m guess
p893
aVbelieve bf transferred spring semester last two semest
p894
aVthink supposed last summer
p895
aVoffice cornel may ask question
p896
aVtransportation services http transportation fs cornell edu
p897
aVfall
p898
aVforgotten red bud woods already
p899
aVrbw huge point discussion semester
p900
aS'2014,07,14'
I8
tp901
a(Vanyone know fastest accessible computer located something faster ones carpenter
(lp902
Vknow whether re trolling doubt make big d
p903
aVlol would trolling m really trying find computer l
p904
aVm really interested trolling one carpent
p905
aVre looking video processing dual monitor computers uri
p906
aS'2014,05,13'
I7
tp907
a(Varound summer come play ultimate us
(lp908
Vyes think may take
p909
aS'2014,04,25'
I6
tp910
a(Vnyc summer sublet college student
(lS'2015,04,24'
I7
tp911
a(Vilr undergrad transfer student looking roomates
(lp912
Vdeleted
p913
aVwhole post kills
p914
aVget single
p915
aVagreed probably best bet join clubs
p916
aS'2015,04,18'
I6
tp917
a(Vpre med also happy guys cornell
(lp918
Vwell depends ask pre med ivy league school like
p919
aVthanks couple questions terms dorming cool si
p920
aVterms housing available freshmen risley maybe cjl open
p921
aVthanks
p922
aVmissed first part original question realized depends yo
p923
aVthank
p924
aVm bio premed m ecology evolutionary bio ve taken
p925
aVgraduated cornell since started medical school
p926
aVeveryone know premed nothing negative things say
p927
aVthanks answer m coming extremely rigorous high school
p928
aVlet debbie downers get much ta course lot
p929
aVhahahaha premed time junior year realized
p930
aVsorry hear man like across classes
p931
aVshouldn said make friends trust major
p932
aS'2015,04,18'
I6
tp933
a(Vincoming grad student looking roommate possibly collegetown area
(lp934
Vword advice want grad student collegetown much
p935
aVlike college town certain roads m boston l
p936
aVthing block collegetown especially since chap
p937
aVman know next nothing ithaca seriously need go visit haha
p938
aVnight life grad students burned least still big
p939
aVcollegetown terrace would good place start looking m
p940
aVm telling ctt want even decent gym site
p941
aVgoogle mapped ctt actually found house right across street
p942
aVgreat best luck dude
p943
aS'2015,04,15'
I6
tp944
a(Vcornell vs virginia tech stamps scholar
(lp945
Vreally want go cornell call number acceptance le
p946
aS''
aVmakes sense take virginia tech offer
p947
aS''
aVfirst congrats getting accepted amazing schools yes cals g
p948
aVundergrad meaning anymore go ever get best deal work
p949
aVdisagree depends undergrad program school companies specific
p950
aVright top notch advice grad programs free even pay
p951
aVyup someone real world experience good undergrad record ea
p952
aS'2015,04,12'
I7
tp953
a(Vincoming grad student signing lease
(lp954
Vre late grad students typically enroll march apri
p955
aVlook craigslist generally
p956
aVyes used craigslist knew wanted live far campus ma
p957
aVlive alone doesn seem shortage housing craigsl
p958
aVprogram gave us contact info us
p959
aVyes live alone program didn help us find housing gi
p960
aVunfortunately m ithaca months haha first time finding
p961
aVmajority students signed leases school year
p962
aVyea re little late check boiceville cottages dog
p963
aVhi vet student got accepted m boat o
p964
aVm plant breeding genetics shoot message might want f
p965
aS'2015,04,12'
I6
tp966
a(Vadvice buying car ithaca
(lp967
Vadvice wait end year buy lot graduating st
p968
aVcircumstances tell max
p969
aVre buying dealership go maguire re bunch
p970
aVbudget need small car
p971
aVmax probably go small car good gas ideal
p972
aVok price point re definitely going go private sale
p973
aVdude thanks lot
p974
aVithaca foreign car sells volvos used new semi reasonable price th
p975
aVprice range re going need buy much older car
p976
aVinteresting thanks heads
p977
aS'2015,03,17'
I6
tp978
a(Vairplay
(lp979
Vwould get cheap router room connect internet
p980
aVfyi violation university policy boo fun allowed edit run
p981
aVviolate asked service desk setting c
p982
aVdouble checked violation dormitory policy unive
p983
aVcould point link states edit best could find w
p984
aVaccording cit http www cornell edu services resnet faq cfm ro
p985
aVinteresting thank link m currently north con
p986
aVre using wired router would get network switch
p987
aVlive building without wifi use router ecology house ro
p988
aS'2015,03,13'
I6
tp989
a(Vb vs b computer science
(lp990
Vre cs degrees re good
p991
aVb vs b debate relic past major matters
p992
aVgeneral consensus matter terms employment
p993
aVclarify cas language requirement credits single language w
p994
aVeven need cs degree get cs jobs need programming e
p995
aS'2015,03,10'
I6
tp996
a(Vquestions meng cs program
(lS'2015,03,09'
I7
tp997
a(Vactive longboarding historical fencing olympic fencing wrestling judo bjj clubs cornell
(lp998
Vlist student clubs http orgsync rso cornell edu search
p999
aVthanks ve problem even though list
p1000
aVkali instructor also nd world one point
p1001
aVyeah kevin seaman teaches kali mma jeet kune boxing thai boxing
p1002
aVhell yeah also respectful relaxed great coach highly r
p1003
aVolympic fencing recreational club men competitive club whi
p1004
aVknow fact judo jiujitsu clubs active
p1005
aVmuay thai commons isn club
p1006
aVjapanese judo physical education course took loved bil
p1007
aVclubs wrestling fencing jiu jitsu thai boxing m
p1008
aVpiggy back onto post open parkour freerunning groups campu
p1009
aS'2015,03,07'
I5
tp1010
a(Vdc working time
(lp1011
Vyes although almost always completely empty think needs
p1012
aVpay year get vpn encrypt torrenting one ab
p1013
aS'2015,02,22'
I6
tp1014
a(Vacademic quiz competition team cornell
(lp1015
Vyeah actually m email listserv cornell quizbowl
p1016
aVyep cornell quizbowl holds practices thursdays sundays pm
p1017
aS'2015,02,21'
I5
tp1018
a(Vselling two tickets men hockey harvard
(lp1019
Vgive away two tickets going drive upstate
p1020
aS'2015,02,13'
I7
tp1021
a(Vlooking cornell house stayed couple weeks someone help
(lp1022
Vget clock tower cross bridge gorge wa
p1023
aVremember near fraternity houses one phi chi think
p1024
aVcould edgemoor https living sas cornell edu live whereto
p1025
aVyeah edgemoor thank much
p1026
aVhouse called chi phi houses nearby look google maps
p1027
aVremember anything surroundings house many
p1028
aVknow campus near frat house
p1029
aVm thinking alice cook house old sigma phi epsilon house overlooks
p1030
aVhm program house list http living sas c
p1031
aVnope wasn program house
p1032
aVsorry others pointing ll need details tell
p1033
aVside campus campus remember street
p1034
aVbeautiful ve narrowed house
p1035
aS'2015,02,08'
I7
tp1036
a(Vcomputer science major someone new programming
(lp1037
Vnever coded freshman spring m junior cs major
p1038
aVtell experience like course load difficult
p1039
aVm different guy also started coding freshman year ju
p1040
aVhi elaborate exactly makes classes like cs difficult
p1041
aVsure particular mostly novel information r
p1042
aVtechnical majors cornell reasonably difficult computer
p1043
aVtry keep mind top ranked cs program went
p1044
aVfwiw went meche cs found cs easier
p1045
aS'2015,01,24'
I6
tp1046
a(Vrisley dorm
(lp1047
Vformer risleyite risley ra ask odds absurd
p1048
aVwell turn secret passages
p1049
aVll bit long lived balch freshman year risley
p1050
aVexactly wanted hear thank see lot yo
p1051
aVpraytell
p1052
aVclass
p1053
aVlived risley three years undergrad active men
p1054
aVrisley super weird decide scene fine make
p1055
aVconfirm risley known weird one
p1056
aVkind scene would say
p1057
aVhaven since freshman year maybe things changed
p1058
aVincredibly accurate
p1059
aVgiant unhelpful stereotype except maybe cliquey annoyi
p1060
aVway big descriptor left sex crazed
p1061
aVhelpful thanks
p1062
aVdepends personality re re looking
p1063
aVreally good answers ll also throw su
p1064
aVlived ris one year blast dining hall great f
p1065
aVrisley great dining hall
p1066
aVrisley probably best location best dining north anyone
p1067
aVlike many others truly wish lived risley freshman year o
p1068
aVbelieve would miss experiences aren surroun
p1069
aVgo dorms ll missing lot experiences freshman
p1070
aS'2015,01,06'
I7
tp1071
a(Vname software cornell students used use pirate stuff campus internet
(lp1072
Vdc
p1073
aVfuck thanks
p1074
aVmac shakespeer
p1075
aVhappened use
p1076
aVdc shut late think little
p1077
aVdeleted
p1078
aVyuuup one point think tried total porn dc stop
p1079
aVknew pretty much power users thing th
p1080
aVidea dont go anymore
p1081
aVmakes feel old isn common knowledge anymore sigh clas
p1082
aVmean graduated lived campus since spring ra
p1083
aVedonkey hotflash
p1084
aVbandwidth cap get substantially raised think remember
p1085
aVgb mo since last year past two months usage hasn
p1086
aS'2014,12,12'
I7
tp1087
a(Vname trees south bound bus stop kennedy hall muds hall
(lp1088
Vplant science major talking trees lining tower road o
p1089
aVthanks nut took back looks like http www naturenorth com garden nuts o
p1090
aVyep know exactly tree re talking ll check
p1091
aVfyi kennedy hall mud hall kennedy hall mudd hall
p1092
aVpictures help take snapshots next time pass
p1093
aVfreshman title time
p1094
aVget mean
p1095
aVdeleted
p1096
aS'2014,10,27'
I6
tp1097
a(Vnearest barber shop
(lp1098
Vyears ago remember part time barber
p1099
aVwow haha wouldn chance d still would
p1100
aVidea seem recall reading somewhere one
p1101
aVstudio gives cuts day sunday think open
p1102
aVwell good news thanks tip
p1103
aVdeleted
p1104
aVouch got keep mind head today
p1105
aS'2014,10,25'
I6
tp1106
a(Vth grader interested architecture program
(lp1107
Vimportant important th grade marks univ pre algebra
p1108
aVfifth year architecture student basically school looking fo
p1109
aVinteresting smart students either well rounded excel
p1110
aVwow th grade already looking colleges bad
p1111
aVm architect know people prepared never yo
p1112
aS'2014,09,29'
I5
tp1113
a(Vsprint cell reception ithaca
(lp1114
Vve student cornell years sprint o
p1115
aVextremely helpful thank ll moving fall creek area ex
p1116
aVunfortunately haven around sorry
p1117
aVvirgin mobil runs sprint network till
p1118
aVsprint sucks
p1119
aS'2014,07,15'
I6
tp1120
a(Vtorrenting cornell
(lp1121
Vcampus know bunch people gotten ja
p1122
aVdeleted
p1123
aVsee software installed damaging disable p
p1124
aVfirst time give warning second time ba
p1125
aVgo campus speeds crap campus
p1126
aVlike everyone said use standard p p networks get
p1127
aVdc still work last time checked issues
p1128
aVsurprised wasn top comment dc server thing anymore
p1129
aVissues associated change management
p1130
aVcampus use vpn usenet however ve banned ctb hours
p1131
aVfacebook group incoming freshmen upperclassmen said
p1132
aVgot two email notices switched vpn something along lines
p1133
aVcit staff love got torrent
p1134
aVcampus nothing happened lol
p1135
aS'2014,07,06'
I5
tp1136
a(Vquiet late night study spots
(lp1137
Vgo open hours building like psb study area nd floor
p1138
aVcarpenter hall open
p1139
aVsomeone else mentioned psb decent baker hall lobby also
p1140
aVdorm room
p1141
aVthink classrooms like goldwin smith also open th
p1142
aVfucking nowhere biggest problem ithaca
p1143
aS'2014,06,29'
I7
tp1144
a(Vincoming engineering student questions performing arts
(lp1145
Vm active performing arts community m fairly
p1146
aVresidence hall campus risley black box theatre
p1147
aVabsolutely people thread mentioned risley theater
p1148
aS'2014,06,03'
I6
tp1149
a(Vincoming grad student landing jfk th aug anyone else
(lp1150
Vstudying
p1151
aVapplied physics
p1152
aVnice
p1153
aVnice pants
p1154
aVpoop stain
p1155
aS'2014,06,01'
I4
tp1156
a(Vcellphone reception cornell generally ithaca
(lp1157
Vthing keep mind verizon service ithaca phenomenal
p1158
aVnecessarily need suffer verizon know optio
p1159
aVthanks applied discount entire family wish
p1160
aVwhoa great information graduate student disco
p1161
aVwow would love hear well ll grad student th
p1162
aVthink legend lock lock information
p1163
aVsee reply u gimmixe
p1164
aVokay know m still receiving discount checked ac
p1165
aVunderstood right virgin mobile takes verizon towers signal
p1166
aVunderstood right virgin mobile takes verizon towers signal
p1167
aVshittons problems tmobile got wifi enabled phone
p1168
aVhear ya shittons least assholic
p1169
aVbought virgin mobile soon moving ithaca reason
p1170
aVwell going live commons pretty much stay myron ty
p1171
aVcornell wifi network pretty much everywhere campus g
p1172
aVsince cornell wifi network pretty much everywhere end choosing
p1173
aVyes indeed
p1174
aVhonestly really pretty much go verizon ve friends
p1175
aVmade first year cornell virgin mobile honestly
p1176
aVll living commons plus coverage cornell
p1177
aVvm definitely doesn use verizon towers usually good service
p1178
aVguess ll republic rireless advocate sprint reception bu
p1179
aVsaw result googling says republic wireless doesn
p1180
aVexcept m republic customer vouch use regular ol re
p1181
aVm att signal problems get city severa
p1182
aVve also got haven problems except
p1183
aVpage plus https www pagepluscellular com verizon mobile virtual ne
p1184
aS'2014,05,29'
I8
tp1185
a(Vbest winter boots cornell
(lp1186
Vput together big guide cold weather stuff https www reddit co
p1187
aVthanks guide information really really helpful since r
p1188
aVhonestly probably feet really need much protection becaus
p1189
aVthank m going go non insulated ones based yo
p1190
aValso saw guide recommended ll bean weather jacket
p1191
aValico waterproofable boot suffice vibram soles desirab
p1192
aVyears never felt needed sneakers
p1193
aVbean boots fur lining haven actually worn
p1194
aS'2015,04,12'
I6
tp1195
a(Vliberal cornell
(lp1196
Vreally depends exactly mean liberal mean activists
p1197
aVla
p1198
aVinteresting question d say cornell large diverse bu
p1199
aValso partnership technion israel institute technology
p1200
aVd say cornell diverse ivies
p1201
aVm cals people know granola hippies g
p1202
aVkeep mind following list least liberal persp
p1203
aVcals odd nice lot granola types also re
p1204
aVgraduated last year still miffed skorton instead congratul
p1205
aS'2015,04,08'
I3
tp1206
a(Vmasters cs information
(lp1207
Vsorry know much admission chances attend dr va
p1208
aS'2015,03,25'
I6
tp1209
a(Vstudents graduates cornell master regional planning program
(lp1210
Vcornell alum field study lies elsewhere general though cor
p1211
aVsounds great cornell website mrp makes sound like formidable prog
p1212
aVcampus breathtakingly beautiful make sure look picture
p1213
aVsounds idyllic one thing didn like business sch
p1214
aVgrad school still hard work still requires hours day six days
p1215
aVgotta slog crap sometimes get prize right g
p1216
aVunless independently wealthy employer paying f
p1217
aS'2015,03,23'
I5
tp1218
a(Vparking b lot
(lp1219
Vexperience bother parking pass way expensiv
p1220
aVlooking places also check tcat bus routes finding place o
p1221
aVve never seen b lot full although park lot vet faculty
p1222
aVpark b lot everyday never fills lot huge get
p1223
aS'2015,03,21'
I5
tp1224
a(Vmasters ecology cornell
(lp1225
Vmaster program ecology either way would contact
p1226
aVyes next step website lists ms degree ecology
p1227
aVpay pocket hard science degree matter go p
p1228
aVintend haha m hoping cornell provides fundin
p1229
aVwould guess department ecology science graduate field
p1230
aVcornell huge grant graduate ecology work makes upset th
p1231
aVthanks specific reply thanks contacts yeah im
p1232
aVyeah agrawal cool guy really enthusiastic lecturer
p1233
aVunless something changed past years think straight
p1234
aVyeah assumed lot grad schools im looking way
p1235
aS'2015,03,19'
I5
tp1236
a(Vcornell placement tests orientation week
(lp1237
Vap tests great way get credit courses ap test standardized
p1238
aVcs would take placement test much less stressful
p1239
aVget credits well enough test class jus
p1240
aVcredit given link right find ap credit ta
p1241
aS'2015,03,12'
I6
tp1242
a(Vecon
(lp1243
Vtaking speak curves grades midterm wednes
p1244
aS'2015,03,12'
I4
tp1245
a(Vinternal transfers
(lp1246
Vtransfer ll generally put standards
p1247
aVgrades weren great concerning arts
p1248
aVhonestly know exact grades definitely bad
p1249
aVpretty simple get solid grades first semester even second
p1250
aVthought arts lot annoying ass reqs sure
p1251
aVoffice student services might want talk waiting afte
p1252
aVheard anyone internally transferring ja solid grades
p1253
aVaround students cornell internally transfer typically
p1254
aS'2015,02,18'
I6
tp1255
a(Vgot d class hospitalized twice three weeks advice
(lp1256
Vdefinitely contact academic services something might able get
p1257
aVagreed approach keep emailing visiting stop office
p1258
aVwell future reference correct thing would email yo
p1259
aVtalk someone medical withdrawls reason
p1260
aVgood place start might advising dean college arts
p1261
aVsimilar thing happened last semester assigned crisis ma
p1262
aVperson email ll get ignored
p1263
aVstudent disabilities services helped concussed contactin
p1264
aS'2015,01,13'
I6
tp1265
a(Vbrazilian jiu jitsu grappling clubs cornell
(lp1266
Vknow def brazilian jiu jitsu club friend meet
p1267
aVway could get link fb group
p1268
aVcase re interested tae kwon club team also practices grappling
p1269
aVlink list student clubs http orgsync rso cornell edu se
p1270
aVfriend bjj cornell think club might n
p1271
aVjiu jitsu club meets monday wednes friday pm pm
p1272
aValso wrestling club meets mondays wednesdays
p1273
aS'2014,12,26'
I6
tp1274
a(Vcourses extracurricular activities internship opportunities etc cornell help succeed computer scientist major
(lp1275
Vcs major connections absolutely important ve never
p1276
aVomg graded project m sorry mishap critter im
p1277
aVconnections aren important sure gpa m sophomore
p1278
aVgpa still think connections important
p1279
aVwould one go taking cs request ar
p1280
aVhaha cornell giving enough rope hang sign
p1281
aVworry internship freshman summer something fun instea
p1282
aVthink cs bit different engineering disciplines num
p1283
aVfair lucky enough intern really small company like people
p1284
aVfyi re probably going win hearts apps pu
p1285
aVassume re asking go beyond typical coursework o
p1286
aVtopcoder codeforces google
p1287
aVm cs know lame connections important friend sop
p1288
aVproject teams research professors intern tech company go care
p1289
aVproject teams
p1290
aVagreed project teams helped lot
p1291
aS'2014,12,14'
I3
tp1292
a(Vstatistics transfer coursework
(lp1293
Vexperience transfer student cas way ge
p1294
aValso would feasable transfer really good college grades
p1295
aVreason cornell really wants graduate years d check
p1296
aS'2014,12,04'
I5
tp1297
a(Vanyone driving binghamton airport ithaca tomorrow
(lp1298
Vbus nyc set get back binghamton around pm tomorrow
p1299
aVfriend flight arrives around rush get bac
p1300
aVprobably fit fine would guys like go grocery shopping
p1301
aVjesus christ man seriously giving ride random dude reddit
p1302
aVbetter rideshare craigslist
p1303
aS'2014,11,28'
I4
tp1304
a(Vmaking schedules
(lp1305
Vbeta coursepad beta coursepad similar chequerd stores info yo
p1306
aVcredit goes one cs major made know name d
p1307
aVthanks works great
p1308
aVcoffee xanax ritalin google calendar kidding good luck
p1309
aS'2014,11,02'
I7
tp1310
a(Vadvice prospective transfer student
(lp1311
Vtransfer student arts college assure one critic
p1312
aVcuriosity get also major
p1313
aVadmitted fall sophomore transfer governme
p1314
aVpretty sick man m applying spring cas m pretty disapp
p1315
aVwell goals interests particular
p1316
aVwell said interested hospitality management family runs
p1317
aVimpression many focused programs hotel school places
p1318
aS'2014,10,22'
I4
tp1319
a(Vcaffeine gum
(lp1320
Vve town couple years vague recollec
p1321
aVthanks ll check
p1322
aVamazon prime
p1323
aVeligible day shipping good found jolt
p1324
aS'2014,10,11'
I6
tp1325
a(Vkaraoke around collegetown friday
(lp1326
Vdeleted
p1327
aVdamn would think bubble tea place would karaoke
p1328
aS'2014,10,02'
I4
tp1329
a(Vgo finding tutor class
(lp1330
Vgo professor ta one office hours also work
p1331
aVsometimes departments keep lists grad tutors hand
p1332
aS'2014,10,02'
I5
tp1333
a(Vfeminist group activity campus
(lp1334
Vhttp cornellsun com blog cornellians join movement protes
p1335
aVpolice prototype white supremacist imperialist cis heter
p1336
aVknow bailey dineen sun didn merely allow quo
p1337
aVdineen said feels tired telling victims sexual assault
p1338
aVbailey dineen talks lot rubbish makes big deal relatively small
p1339
aVnice try skorton
p1340
aS'2014,09,30'
I5
tp1341
a(Vconcert tickets
(lp1342
Vfolks sold tickets multiple concerts free sale
p1343
aVawesome thanks edit posted another friendly person pointed
p1344
aVcraigslist
p1345
aVfirst place checked luck thanks
p1346
aS'2014,09,23'
I6
tp1347
a(Vbest deals food collegetown
(lp1348
Vtbp dumpster food free naah kidding tbp doesn throw anythin
p1349
aVseriously never eat tbp
p1350
aVcooking food pretty cheap delicious
p1351
aVapollo chinese restaurant item combo give generou
p1352
aVsouvlaki house pretty reasonable delicious lots different options
p1353
aVentirely sure true anymore miyaki plum tree used
p1354
aVworking ctb got pm looking cheap food plac
p1355
aVctb breakfast sandwiches like bronx brooklyn served day
p1356
aVlittle thai house pretty good deals
p1357
aVget hot food like chicken wings pizza slices etc
p1358
aVactually pretty good cheeseburger hot dog mmmmmmm
p1359
aVtbp burritos student id think also sign eatstr
p1360
aVused buy ramen packs shockingly cheap small groce
p1361
aS'2014,08,27'
I5
tp1362
a(Vvideo game lag
(lp1363
Vtried using ethernet
p1364
aVprobably thanks edit thread
p1365
aVwelcome cornell people great classes fantastic
p1366
aVethernet dont even playing wireless good like thou
p1367
aS'2014,08,26'
I6
tp1368
a(Vbest place get men haircut
(lp1369
Vhome arrive ithaca sarcasm expect m
p1370
aVdepending usually get big red barber always pretty good
p1371
aVyep m pretty happy studio ask either wayne bob give
p1372
aVgene barber shop triphammer mall
p1373
aVused go pesco barber shop plaza across home depot
p1374
aVacute style dryden favorite good haircuts big red barber
p1375
aS'2014,08,18'
I6
tp1376
a(Vfinancial aid showing net pay account
(lp1377
Vmight want give financial aid office call bite
p1378
aVhold minutes gave ll give g
p1379
aVtime year ll kept hold long time everybody prob
p1380
aVnote credits charges net pay refresh every month
p1381
aVthing last year need
p1382
aS'2014,08,14'
I5
tp1383
a(Vusing fitness centers without student id
(lp1384
Vcurrently work fitness centers yes use gyms withou
p1385
aVmight able get id early go day hall started
p1386
aVwould definitely see getting id early like person said
p1387
aVaccess fitness centers student id g
p1388
aS'2014,07,24'
I6
tp1389
a(Vmeal plan
(lp1390
Vd recommend bear choice plan since re starting first semester
p1391
aVlived sheldon couple years ago would recommend either bear cho
p1392
aVdeleted
p1393
aVll third year school transferring maryland
p1394
aVcongrats getting planning program one best c
p1395
aValways change mind later pick sounds best adjust
p1396
aVman m old know bear choice meal plan days
p1397
aS'2014,07,16'
I4
tp1398
a(Vsign ithaca team greatest internet scavenger hunt world ever seen
(lp1399
Vnever competed gishwhes excited year
p1400
aS'2014,07,11'
I6
tp1401
a(Vcascadilla collegetown transfer
(lp1402
Vdeleted
p1403
aVgood know thanks
p1404
aValso shuttle close cascadilla tennis class
p1405
aVll check would great plausible option mo
p1406
aVcuriosity snooped around comment history saw re
p1407
aVhey like villanova good mattered besides ll ge
p1408
aVoh hello fellow cascadilla hall resident
p1409
aVdepending college transferring either gr
p1410
aVm cals bit hike ag quad
p1411
aVtaking bus corson mudd kennedy good call bright sid
p1412
aS'2014,07,11'
I6
tp1413
a(Vwindows license students
(lp1414
Vcheck dreamspark com
p1415
aVremember however restrictions windows get drea
p1416
aVwindows dreamspark retail license couldn enforce even
p1417
aVrelevant info cornell ece dreamspark accounts seem deacti
p1418
aS'2014,07,11'
I6
tp1419
a(Vapartment advice incoming grad
(lp1420
Vhello think places close enough campus walk minutes wal
p1421
aVthanks
p1422
aVre going want walk minutes campus december ma
p1423
aVkidding m coming montreal wouldn want walk
p1424
aVre talking east hill service like bus route goe
p1425
aVroute goes east plaza address closer element
p1426
aVok though plaza talking bad
p1427
aS'2014,05,23'
I5
tp1428
a(Vrisley dining
(lp1429
Vpeople commenting grown fat spoils meal
p1430
aVdeleted
p1431
aVknow learn cook simple meals easy cooking actual food
p1432
aVgo west campus get real meal
p1433
aVrisley awesome especially mongolian wok better
p1434
aVlorna make better
p1435
aVformer manager addition generally awesome resulted
p1436
aVpersonally liked risely quite bit less choices smaller tha
p1437
aVridley dining crap options takes forever get
p1438
aVmediocre often better schlepping rpcc winter probably ha
p1439
aVusual entrees
p1440
aVdining website http living sas cornell edu dine whattoeat menus
p1441
aS'2015,04,22'
I4
tp1442
a(Vpersonality cornell
(lp1443
Vve academic years grad student postdoc h
p1444
aVhonest think personality cornell fairly open happy
p1445
aVstudent body diverse cornell multiple personality disorder
p1446
aVwut ab ut ngin eers
p1447
aVattend cornell lived worked area whole life
p1448
aVabsolutely certain personality cornellians m alum
p1449
aVundergrads elitist grads awesome friendly welcoming environmen
p1450
aVprefrosh would really say undergrads elitist kind
p1451
aVyah ll see administration lot tell proud sh
p1452
aVfreshman year
p1453
aS'2015,04,14'
I3
tp1454
a(Vcornell undergraduate business
(lp1455
Vcornell dyson school applied economics management business sch
p1456
aVcould also non declared major iirc transfer aem applied
p1457
aVdeleted
p1458
aVhonest m sure ve heard easier transfer
p1459
aVdeleted
p1460
aVsuper hard get freshman need good scores ec
p1461
aVdeleted
p1462
aVtrust m side didn get freshman external
p1463
aVmany athletes think accepted
p1464
aVmaybe
p1465
aVdeleted
p1466
aVprobably artificially lower acceptance rating ranking prestige pur
p1467
aVdeleted
p1468
aVessentially generic look around dyson site go th
p1469
aVdeleted
p1470
aVdeleted
p1471
aVdeleted
p1472
aVdeleted
p1473
aS'2015,04,11'
I3
tp1474
a(Veasy get around campus winter
(lp1475
Vget winter boots deep treads fine walkways g
p1476
aVwalking winter dumped salt everything l
p1477
aVsnow days rare obey walkway closed winter maintenance sig
p1478
aVdress warm get nice pair boots fine despite much
p1479
aVbuses cover place incredibly unreliable terms get
p1480
aVanyone recommendations good winter boot brands girls know ll
p1481
aVsorel joan arctic boots love
p1482
aS'2015,04,11'
I5
tp1483
a(Vpet friendly campus housing
(lp1484
Vplaces ridiculous pet deposits aren actually returned
p1485
aVwant place plan would alright havi
p1486
aVm coming cornell fall flexible housemates
p1487
aVtried craigslist padmapper com sabbaticalhomes com search
p1488
aVdidn realize pet limit neighbor literally dogs
p1489
aVholy crap lease says big bold caps letters max m considering
p1490
aVgrads young professionals families retirees go
p1491
aVcampus hill apartments stewart ave allows cats dogs although
p1492
aVexpensive compared everything else tho really nice d
p1493
aVfound huge house south hill danby distance away bed
p1494
aVooh tempting nice renovated place go otherwise
p1495
aVdefinitely tempting utilities run much higher get huge house fam
p1496
aVplaces nonsense unrefundable pet deposits ones u
p1497
aS'2015,04,10'
I4
tp1498
a(Vreasonable taxi service
(lp1499
Vunfortunately least uber arrives ithaca dispatch sucks
p1500
aVtake bus
p1501
aVflights departed airport bus route started
p1502
aVintroduce uber ithaca ithaca dispatch main taxi company
p1503
aVdunno smell like wet dog whatever use clean vomit
p1504
aVgreen hornet probably best competition awf
p1505
aVm senior used taxi service dozen times never
p1506
aVdeleted
p1507
aVactually disagree find ithaca dispatch unacceptable work
p1508
aVdeleted
p1509
aVgood point
p1510
aVyeah ve spent long time thinking uber hasn arrived ar
p1511
aS'2015,04,03'
I5
tp1512
a(Vadvice incoming masters engineering student
(lp1513
Vhttps www gradschool cornell edu life cornell moving ithaca housing
p1514
aVsimilar situation couple years ago agree heraclitusz l
p1515
aVthank everyone much advice m really excited start fa
p1516
aVfinishing m eng semester general advice enjoy th
p1517
aVbump
p1518
aVcongrats public transportation based bus system
p1519
aVwalked buffalo winter thought makes exhausted
p1520
aVnope took either cascallia gorge trail university avenue
p1521
aS'2015,04,01'
I2
tp1522
a(Vwaitlisted questions
(lp1523
Vemailing college expressing strong interest best thing
p1524
aVthanks ve done guess time wait p
p1525
aVpicked cmu seem frown upon gap years fyi
p1526
aVjudging financial aid won able attend anyway let hope
p1527
aVcould always attend one schools transfer
p1528
aVthink gap year older brother got took
p1529
aVmentioned email let hope helps thanks
p1530
aS'2015,03,31'
I4
tp1531
a(Vquestions food science major cornell
(lp1532
Vfriend alum food science main interests
p1533
aVthank would great help thank d
p1534
aVanswered back posted reply u shaeve higher thread
p1535
aVcould forward information m also going food science th
p1536
aVtell kid blend chemistry engineering m
p1537
aVthank helpful
p1538
aVyeah asked hasn replied yet ll either post
p1539
aS'2015,03,31'
I4
tp1540
a(Vadvice welcome
(lp1541
Vpre orientation program great way meet incoming st
p1542
aVpreorientation one arnott forest highly recommend
p1543
aVaddendum look rideshares re quicker cheaper busses
p1544
aVsummer ithaca awesome sunshine gorges free outdoor music ithac
p1545
aVunpleasant misunderstood
p1546
aVm going ask question thread worth price go
p1547
aVhonestly think depends aid ll give
p1548
aVlike went suny binghamton years got great engine
p1549
aVapply regular early applied regular still waiting
p1550
aVapplied regular school hotel administration rolling guess m
p1551
aVoh yeah heard already released m waiting school engine
p1552
aVthanks
p1553
aVknow people see wouldn able go long
p1554
aVm ma hoping way commute home every
p1555
aVbuses sure often
p1556
aValso site called zimride essentially carpooling site
p1557
aVoh wow perfect
p1558
aS'2015,03,24'
I3
tp1559
a(Vhandle ruth ruth bader ginsburg given funny shirt brooklyn court eastern district celebration
(lS'2015,03,19'
I3
tp1560
a(Vanyone experience using trailways bus company get city
(lp1561
Vtrailways better greyhound avoid greyhound costs
p1562
aVtaken trail ways shoreline neither particularly better
p1563
aVtry posting class fb pages asking rides well chipping gas
p1564
aVcheaper shortline
p1565
aVexpensive gets nyc quicker
p1566
aS'2015,03,13'
I4
tp1567
a(Vfeasibility internal transfer hotel school current second semester sophomore
(lp1568
Vknow least three varsity athletes made change sha las
p1569
aVfriend transferred ag hotel school sophomore
p1570
aValumni internal transfer second year think able th
p1571
aS'2015,03,09'
I4
tp1572
a(Vwest housing meal plans
(lp1573
Vforce get unlimited meal plan live hous
p1574
aVhonestly bullshit
p1575
aVhouse dinners awesome though
p1576
aVm pretty sure require plan west could potentially live
p1577
aVwould like go cascadilla people block want west
p1578
aVcasc would make sense block already
p1579
aVrandom incoming transfer block b
p1580
aS'2015,03,08'
I3
tp1581
a(Vuse youtube mp converter redrover
(lp1582
Vwell time oops
p1583
aVconstantly use http www video mp net eduroam seems like song
p1584
aVll fine using anything rips videos also direct
p1585
aVdownload anything want cornell doesn track internet usage
p1586
aVgot cease desist letter cornell gave warning stop
p1587
aVusing listentoyoutube speak
p1588
aVve used years recently failing saddens lot
p1589
aVuse flvto com find better listentoyoutube
p1590
aVthink download much shit re fine
p1591
aVthanks replies m paranoid person think m
p1592
aVerr lot
p1593
aVive using murda net download playlists forever one said
p1594
aVdownloading youtube video considered violation youtube ter
p1595
aVfuck da police https www youtube com watch v c fts bj
p1596
aS'2015,03,01'
I5
tp1597
a(Vsummer winter liberal studies courses
(lp1598
Vart modern world ve friends taken said good
p1599
aVthanks found anthr http www sce cornell edu ss courses cours
p1600
aVyeah think trip moma probably charged lab fee
p1601
aVanthropology parenting http www sce cornell edu ss courses courses
p1602
aVthanks couldn find course listed liberal studies course list
p1603
aVhonestly remember confirmed advisor beforehand kn
p1604
aS'2015,02,24'
I3
tp1605
a(Vmade undergrad face incredible adversity convince graduate admissions m candidate worth considering academic performance suffered times
(lp1606
Vpersonal projects portfolio website cover letter explaining p
p1607
aVfully intend m already preparing items m loo
p1608
aVwell show tell
p1609
aVnote grad school often grades aren important port
p1610
aVm preparing take gre right think m going great
p1611
aVtalked profs offer far best
p1612
aVnever north dc actually contact anyo
p1613
aVhi live dc conduct interviews cornell albeit undergrad
p1614
aVthank exactly needed know submit applicat
p1615
aVre welcome didn mean imply linkedin huge part ap
p1616
aVunderstand check linkedin undergrads
p1617
aVm going say admissions people cornell check
p1618
aVthanks well elaborated quick response everything inches
p1619
aVprogram looking rates admission vary wildly pro
p1620
aVm actually thinking branching going general management
p1621
aS'2015,02,23'
I5
tp1622
a(Vpotential grad student looking housing options
(lp1623
Varen really good agencies town ll
p1624
aVthanks started checking around craigslist found nice options
p1625
aVcsp management handles stuff small landlords mostly free f
p1626
aVthanks
p1627
aVhouses friends grad students lo
p1628
aVsort scams m another potential grad student
p1629
aVfriend looking house rent couple supposedly ab
p1630
aVmight find helpful https www johnson cornell edu portals news
p1631
aVhousing cheap plentiful lots grad students like maplewood park fo
p1632
aVve never heard anyone say housing cheap ithaca mean
p1633
aVstudent cornell rent month yale
p1634
aVmonth even crappiest crap hole could find
p1635
aVdecade ago things may changed
p1636
aVwould explain lol get anything decent collegetown re lo
p1637
aVbrutal
p1638
aS'2015,02,10'
I4
tp1639
a(Vrisley hall board game question
(lp1640
Vdeleted
p1641
aVpublished game know origins something th
p1642
aS'2015,02,04'
I5
tp1643
a(Vcamera lense rentals
(lp1644
Vcheck cornell photography club equipment manager
p1645
aVuris library offers camera rentals hours ask circulation
p1646
aVpresident cps cornell photo society first sign
p1647
aVhappened existing equipment used locker bake
p1648
aVpartner inherited position without knowledge r
p1649
aVjeez rented equipment years ago remember locker full
p1650
aS'2015,01,19'
I4
tp1651
a(Vwegmans meals week meal plan
(lp1652
Vaddition else said keep mind ll hard ke
p1653
aVfair point really like cooking lol looking get
p1654
aViirc get latter two nastie though ll super marked u
p1655
aVyeah planning eating cottage cheese yogurt everyday price
p1656
aVyep least among friend group people would drag feet g
p1657
aVpain ass tried fall freshmen year
p1658
aVstraight bus route tops really want walk win
p1659
aVyes route weekdays route weekends debark
p1660
aVreally know route means referring bus number tca
p1661
aVyes
p1662
aVyes goes east avenue across thurston bridge stops balch
p1663
aVhits tops
p1664
aVcoming ve year m tcat master
p1665
aVm freshman north campus bus goes helen newman balch
p1666
aVcatch corner balch hall thurston route turns
p1667
aVthing week route
p1668
aVsounds like best plan thanks help
p1669
aValso snag one http www tcatbus com files fall g
p1670
aVdont go wegmans get ride bus pain us
p1671
aVwent rosie website seem find wegmans tops onl
p1672
aVthats correct pnc still pretty good min nothing
p1673
aVprobably changed since student huge pa
p1674
aVhell pretty bullshit travel time tops probably isn
p1675
aVre pretty handcuffed freshman year meal plans suck tcat inconven
p1676
aVguy car sophomore would trade rides booze
p1677
aVcatch seneca tioga every every hour
p1678
aVahh man m really terrible street directions nyc w
p1679
aVre iphone search ride best bus planner
p1680
aVyeah app m using currently gripe app
p1681
aVexperience closest bus stop generally minute walk away
p1682
aValso really like tcat physical map also g
p1683
aS'2015,01,16'
I4
tp1684
a(Vclubs work
(lp1685
Vemail club say re interested see meetings go
p1686
aS'2014,12,28'
I2
tp1687
a(Vparking garage winter break
(lS'2014,12,16'
I5
tp1688
a(Vapplying mfa creative writing graduate program questions
(lp1689
Vbelieve mfa teaching assistantships plus maybe fellowship
p1690
aVget accepted get full ride stipend insurance two y
p1691
aS'2014,11,03'
I5
tp1692
a(Vimportant art requirements aap college
(lp1693
Vdepends major art architecture required portfolios
p1694
aVfriend aap says art requirements architecture stud
p1695
aS'2014,11,01'
I4
tp1696
a(Vtips choosing college apply
(lp1697
Vapply cals many people position
p1698
aVmajor dyson m aem frankly transferring aem later mor
p1699
aVcas requirements others language breadths also
p1700
aVknow would exempt freshman writing seminars
p1701
aVimpossible say sure anecdotally people take least
p1702
aVthanks
p1703
aVthink according page http cornell edu information
p1704
aVdeleted
p1705
aVreally helpful thanks
p1706
aVsince solid idea beyond business m going say doesn
p1707
aS'2014,10,26'
I4
tp1708
a(Vdumpster diving ewaste bins cornell
(lp1709
Vloading dock rhodes hall home several engineering departments qui
p1710
aVloading dock behind bard hall usually good stuff bu
p1711
aS'2014,10,12'
I3
tp1712
a(Vapplying ed engineering materials science majors engineering students could answer questions
(lp1713
Vtry commenting questions probably answer
p1714
aVengineering major feel free dm
p1715
aVknow lot engineering students various majors
p1716
aVm sophomore majoring materials science feel free direct message
p1717
aVback day ece number mse friends well maybe
p1718
aVyeah post directly
p1719
aVcomputer science major engineering feel free pm
p1720
aS'2014,10,05'
I4
tp1721
a(Vgood financial aid package
(lp1722
Vnonexistent
p1723
aVdeleted
p1724
aVfinancial aid way knowing maybe could f
p1725
aVpoor means nowhere near rich enough even consider payi
p1726
aVknew kids whose parents owned small businesses operating cash
p1727
aVthank candidly sharing experiences financial aid proces
p1728
aVextremely good paid majority fees course de
p1729
aVaid amazing pm want specific details m happy wi
p1730
aVdepends family income factors received good
p1731
aVm getting close k actual finaid grants another k loans m
p1732
aS'2014,10,05'
I3
tp1733
a(Vcs program cornell compare ivies
(lp1734
Vbig cs stanford mit cmu cornell georgia tech
p1735
aVfeel like uc berkeley list somehow another
p1736
aVreplace gt uiuc
p1737
aVcornell cs engineering back considered tops
p1738
aVtake grain salt applied usnews ranked us th m
p1739
aVquite hard get classes say checke
p1740
aVexpand several classes year two lectures enrol
p1741
aVprotip us morning lecture come
p1742
aS'2014,09,16'
I4
tp1743
a(Vlaboratory technician hire
(lp1744
Vaw good luck
p1745
aS'2014,09,10'
I4
tp1746
a(Vchoosing college within cornell
(lp1747
Vm junior biology major cals great time many stat
p1748
aVthank really helped
p1749
aVhuman ecology school doesn direct biology program arts
p1750
aVhumec great college m human development know lot peopl
p1751
aVwasn either schools roommates friends
p1752
aVthank
p1753
aS'2014,09,03'
I5
tp1754
a(Vcornell information science
(lp1755
Vgraduated cals stereotypically started cs arts
p1756
aVinfo sci comp sci hotel school cornell take f
p1757
aVpersonally know information science undergrads went gra
p1758
aVpartially true info sci run whole spectrum high
p1759
aVtell running joke among cs engineers people
p1760
aVdeleted
p1761
aVcals
p1762
aVthink degrees existed graduated two optio
p1763
aS'2014,08,29'
I5
tp1764
a(Vanyone internal transfer aap
(lS'2014,08,24'
I4
tp1765
a(Vrock climbing buddy
(lp1766
Vhey m vet student also got rock climbing summer
p1767
aVperfect ll shoot email
p1768
aVhi tell know good spots nearby m bit busy semester
p1769
aS'2014,08,24'
I4
tp1770
a(Vcompany ranked top u college towns getting around foot ithaca ranks first
(lp1771
Vmassive hill things arent close w
p1772
aVmust ve accounted two dimensions
p1773
aVthought could walk walmart didn streets
p1774
aVlol
p1775
aS'2014,08,20'
I4
tp1776
a(Vremote access machines computing labs
(lp1777
Vunless something sitting keyboard target computer
p1778
aVthanks insider information way remote access
p1779
aVremote used teamviewer needs would perfo
p1780
aVthanks os ubuntu instructions remote accessing
p1781
aS'2014,08,16'
I5
tp1782
a(Vfiber science majors
(lp1783
Vknow guy think comes sub though ll send pm
p1784
aS'2014,07,24'
I3
tp1785
a(Vexpensive pe classes worth
(lp1786
Vfun handgun safety archery courses courses nic
p1787
aVdeleted
p1788
aVtrue although maybe see want entrust m
p1789
aValternatively pool paddling sounding completely absurd one
p1790
aVthank suggestion m considering signing sounds
p1791
aVten person class chance might suggest
p1792
aVdeleted
p1793
aVget learn bunch cool maneuvers wouldn viable practic
p1794
aVaddition flackbox said spent good portion time playin
p1795
aVkeep mind coe cornell outdoor ed also offers couple free clas
p1796
aVcoe great audited wilderness survival dates conflicted mandatory
p1797
aVtook ice climbing freshman year several friends blast
p1798
aVtaught climbing classes still student re absolutel
p1799
aVthinking purchasing pass anyways indoor wall y
p1800
aVsuper easy find people climb climbers friendly
p1801
aVsay yes hard enough cornell pe classes great everyone d
p1802
aVtook rock climbing mountain biking loved get
p1803
aVtook skeet shooting golf skeet shooting fantastic small group
p1804
aVhighly recommend rec golf well going class schedule
p1805
aVyeah heeded advice given took r
p1806
aVhi ll going cornell fall one question hope yo
p1807
aVbring clubs course clubs re
p1808
aVbrought believe course rental clubs available
p1809
aVhi ll going cornell fall one question hope yo
p1810
aVwalk far rpcc
p1811
aVve campus ll living west campus would
p1812
aVactually far walk north campus cut
p1813
aVrent locker club house store clubs like se
p1814
aVtook rock climbing fun became belay certified knew nothing ab
p1815
aVroommates took rock climbing loved took horseback riding
p1816
aVre furious wait take required pe classes n
p1817
aVm kind cranky m working minimum wage summer job sort
p1818
aVtake martial arts class
p1819
aVfyi fee mandated classes ie handgun archery fill
p1820
aVended taking introduction meditation fit schedule
p1821
aVtook bowling really fun definitely recommend
p1822
aS'2014,07,09'
I4
tp1823
a(Vtrivia night ithaca high school thursday
(lS'2014,05,13'
I4
tp1824
a(Vgyms cornell
(lp1825
Vone facility campus bumper plates platforms whe
p1826
aVtrue two oly platforms noyes said re
p1827
aVreally ve never noyes teagle signs everywhere saying
p1828
aVwould say gym near freshman dorms suitable weight training
p1829
aVsure ve ever really teagle guess
p1830
aVidea ymca gym looks like appel pretty lacking hele
p1831
aVthanks sign gym specifically sign
p1832
aVsign cornell gym membership gets gyms
p1833
aVusually go teagle around pm usual busy time gyms
p1834
aVthanks bunch
p1835
aS'2014,05,12'
I3
tp1836
a(Vincoming computational biology phd student looking housing roommates
(lS'2015,04,20'
I3
tp1837
a(Vanyone experience coops
(lp1838
Vlived watermargin two years undergrad really nice house w
p1839
aVoh sound similar like frats whole throwing parties thin
p1840
aVculture really frat program house w
p1841
aVgotcha cool much rent btw think lists says
p1842
aVve friends watermargin triphammer cayuga lodge stewart w
p1843
aVbiggest difference dorm co op residents
p1844
aS'2015,04,16'
I3
tp1845
a(Vtransfer experiences questions current students former transfers
(lS'2015,04,14'
I3
tp1846
a(Vilr residency requirment
(lp1847
Vdeleted
p1848
aVknew guy president frat prominent several organiza
p1849
aVexperience reasonable petition accepted
p1850
aS'2015,04,13'
I2
tp1851
a(Vgraduate student looking roomate
(lp1852
Vtry yorango com http www yorango com seems popular
p1853
aS'2015,04,10'
I1
tp1854
a(Vvisiting tomorrow diversity hosting suggestions check im campus
(lp1855
Vdairy bar
p1856
aVdiversity hosting three years ago think host serious ab
p1857
aVpm go climb steps top clocktower eat rosemary salt
p1858
aVth floor johnson museum
p1859
aS'2015,04,08'
I2
tp1860
a(Vdifficult find professors willing mentor undergrad researchers
(lp1861
Vsure cs biology positions credit rarely
p1862
aVoh didn realize research credit option almost
p1863
aVpeople research credits research semester re
p1864
aVplant biology graduate student undergraduates lab
p1865
aVthink really depends funding situation lab biolo
p1866
aVevery department independent study option e g cs
p1867
aVknow fact professor nate foster always willing talk
p1868
aS'2015,04,05'
I3
tp1869
a(Vquestions cornell
(lp1870
Vknow join mostly won affect yes
p1871
aVthanks meet schedule thing isn ideal corne
p1872
aVraces optional decent number us run fall nirca ra
p1873
aVll fine long fail huge unless re
p1874
aVthing classes join greek life
p1875
aVthanks wuboo
p1876
aVsubject greek life greek life really big campus partially
p1877
aVkeep rest grades ll fine greek life comprise
p1878
aVthanks
p1879
aVguys m good
p1880
aS'2015,04,02'
I3
tp1881
a(Vaccepted cas fall transfer different school arriving
(lp1882
Vdyson within cals requires full internal transfer m sur
p1883
aVthanks depth answer interesting program known
p1884
aVdyson program one two undergraduate business programs ivies
p1885
aVneed get started transfer someone internal tran
p1886
aVappreciate personal response like said m sure yet
p1887
aS'2015,03,05'
I4
tp1888
a(Vconsidering m eng computer science cornell tech nyc looking advice
(lp1889
Vnyc program new doesn many alumni draw exper
p1890
aVthanks definitely prefer cornell tech course still going b
p1891
aVgo ll fun greatest city earth http www timeo
p1892
aVtime understanding nyc tech program much mor
p1893
aVone course whole degree either way think probably depends
p1894
aVwhole course thanks reply guess bit hard compare
p1895
aVnyc cold re somewhere ungodly hot think nyc co
p1896
aVunfortunately ungodly hot places average temperature li
p1897
aVchoice tech campus pretty good always shop cafe
p1898
aVwell according website actual nyc campus won open till
p1899
aVguess campus definitely tilted ithaca favor like cou
p1900
aS'2015,03,04'
I3
tp1901
a(Vcornell equivalent cs cource mit course using sicp
(lp1902
Vget classes first cornell bitchin tough fun
p1903
aVclosest indeed cs like sicp cover fun
p1904
aVsicp different purposes sicp seems emphasize topic
p1905
aVcertainly would say bent towards topics us
p1906
aS'2015,02,27'
I3
tp1907
a(Vpotential grad student wondering sibley school mae
(lp1908
Vcurrent mae phd student overall m happy choice
p1909
aVhi messaged questions program thanks
p1910
aVoptions kind sucks like civilization
p1911
aVcivilization light speak undergrad ithac
p1912
aVcloser calorie difference undergrad grad
p1913
aVmean like traveling much
p1914
aS'2015,02,27'
I1
tp1915
a(Vhappens drop course add drop deadline
(lp1916
Vdeadline ll get w withdrawal transcript
p1917
aVdrop deadline semester
p1918
aValright thanks
p1919
aVcorrect source take w golf got charged
p1920
aVprobably good note add deadline drop deadline th
p1921
aVincredibly good know thank much course
p1922
aVdeadline drop march th http registrar sas cornell edu student
p1923
aVdeath
p1924
aS'2015,02,02'
I3
tp1925
a(Vapproved bulletin boards engineering quad
(lp1926
Vupson basement main place bulletin boards per b
p1927
aVthanks
p1928
aS'2015,01,27'
I3
tp1929
a(Vinfo digital gaming alliance
(lp1930
Vactually video game club go play video games
p1931
aVhmm thought bunch different things like umbrell
p1932
aVmhm true playing video games gaming sessions
p1933
aVahh shucks know
p1934
aVknow specific clubs game design courses
p1935
aVyup m looking
p1936
aVm ta game design ama
p1937
aVgood club place upper level cs course work get st
p1938
aVgame design hard intro class mostly sophomores done te
p1939
aVfair amount experience highschool would rec
p1940
aVcomments
p1941
aVclarify previous poster said dga codin
p1942
aVlol gdi
p1943
aVthanks
p1944
aVdga big group playing games getting started cs projects m
p1945
aS'2015,01,22'
I2
tp1946
a(Vquestion altering meal plan
(lp1947
Vreimbursement terms money get credit appli
p1948
aVre considering switching d soon possible changed
p1949
aVdidn touch meal plan yet eating tuna cup noodles lol
p1950
aS'2015,01,19'
I3
tp1951
a(Vcurrent ilr students
(lp1952
Vtransferred graduated okay
p1953
aVsounds enthusiastic encouraging haha like
p1954
aVbetter schools wanted well round
p1955
aVoh man exactly wanted go schools
p1956
aVgraduated loved top comment pointed
p1957
aVstarted ilr liked lot ultimately realized wasn fi
p1958
aS'2015,01,16'
I1
tp1959
a(Vprospective transfer student
(lp1960
Vm assuming d looking college agriculture life scienc
p1961
aVactually similar experience ptk community college received le
p1962
aS'2015,01,08'
I3
tp1963
a(Vinteractive study increasing awareness colon cancer
(lS'2015,01,03'
I3
tp1964
a(Vgpa statistics
(lp1965
Vcould use median grades transcript find gpa
p1966
aVm pretty sure average gpa engineers high edit
p1967
aVd agree basically got c calculus physics c
p1968
aVwait seriously thought ivy
p1969
aVassume re making joke grade inflation know cornel
p1970
aVpiggy backing gpa stats majors
p1971
aVengineering right around first years
p1972
aVstatistics wrong average isn un
p1973
aS'2014,12,29'
I2
tp1974
a(Vtools cutting bindings book
(lp1975
Vyes go library technical services department basement olin
p1976
aVolin library tip doesn work lot department mail rooms
p1977
aVthanks department mail rooms often heavy duty paper cutters normal
p1978
aVperhaps heavy duty one
p1979
aVmight interested http dollarscan com
p1980
aS'2014,11,23'
I3
tp1981
a(Vbus elmira airport
(lp1982
Vfriend car
p1983
aVused use taxi shuttle
p1984
aVdeleted
p1985
aVcome buy ticket online seems kind weird
p1986
aVshuttle
p1987
aVsorry thinking official name ithaca airport ve
p1988
aVsurprised one mentioned http ridectran com en
p1989
aVsee elmira ithaca
p1990
aVclick bus route gives stops three stops
p1991
aVbiggest fucking problem ithaca ithaca airport sucks
p1992
aVyeah sucks idea much taxi would
p1993
aVelmira roughly suggestion possible would buy
p1994
aVuse ithaca airport
p1995
aS'2014,11,19'
I3
tp1996
a(Velectrical engineering cornell
(lp1997
Vdisclaimer engineer first cornell electrical engine
p1998
aVlooking forward another response thanks
p1999
aVparaphrase response got cornell go way
p2000
aVhey m junior cornell studying ece ece classes good b
p2001
aVjunior engineering school disclaimer regardless uni
p2002
aVcoe east coast enjoyable atmosphere clicked etc must nic
p2003
aVm playing worlds smallest violin
p2004
aVyes pity poor person elitist fucking snob
p2005
aVm graduate student ece department cornell first mit
p2006
aS'2014,11,15'
I3
tp2007
a(Vvideo game club
(lp2008
Vquick search led digital gaming alliance http orgsync rso cornell
p2009
aVm listserv digital gaming alliance believe
p2010
aVthank much
p2011
aS'2014,11,07'
I3
tp2012
a(Vcornell sub school stereotypes
(lp2013
Vasking colleges schools university college
p2014
aVwork arts sciences
p2015
aVarts college know schools
p2016
aVah ok heard individual schools within confused
p2017
aVstereotypes heard colleges
p2018
aVnote physics major many physics majors dislike engineers pri
p2019
aVhaha touch though one exception circuits bazarov
p2020
aVagree physics grad student ta d lot phy
p2021
aVhaha nope m phd student ee harvard busy working disser
p2022
aVhear hear let make fun bio majors weird buildings
p2023
aVhaha yeah programs produce outstanding physicists especially ta
p2024
aVwave guides design
p2025
aVserenity really accurate tone captured perfectly would add tha
p2026
aVcommunications cals actually
p2027
aVshows much know majors college bad
p2028
aVgood know much chem majors spend o
p2029
aValways assume anyone dressed nicely interview speech etc ho
p2030
aVgraduate ilr known playing corporate dress
p2031
aVpresident house ilr said wouldn able
p2032
aVengineering full hard th
p2033
aVformer engineering student y didn know right engineers since
p2034
aVdidn know many engineers either
p2035
aVengineers smartest aap hardest working humec well rounded ilr mos
p2036
aS'2014,10,30'
I3
tp2037
a(Vdungeons dragons
(lp2038
Vtabletop gaming club edit also like half club made
p2039
aVre pretty cool right played card games bunch th
p2040
aVd recommend joining sending email gaming club listserv suspect
p2041
aS'2014,10,01'
I3
tp2042
a(Vnone power outlets duffield work
(lp2043
Vask building maintenance
p2044
aVthink answer question spending time beyond
p2045
aS'2014,09,16'
I2
tp2046
a(Vlooking wow players
(lp2047
Vprotoss vs protoss
p2048
aVm ashe main jungle
p2049
aVbeautiful
p2050
aVplay
p2051
aVm sorry clue either guys talking
p2052
aVre making jokes starcraft another blizzard game prolly yo
p2053
aVknow starcraft league dont know dota though lov
p2054
aS'2014,09,15'
I3
tp2055
a(Veconomics cs
(lp2056
Vcs program isreally good
p2057
aVecon program isreally good
p2058
aVecon major boyfriends cs majors goal make
p2059
aVthanks irrelevant question name fist day
p2060
aVbrother actually double majoring econ cs programs
p2061
aVhs junior interested cornell also interested studying econom
p2062
aVyep
p2063
aS'2014,09,06'
I2
tp2064
a(Vcampus pursuit treasure hunt arrived cornell
(lp2065
Vsounds like great idea happening alma mater aweso
p2066
aS'2014,09,02'
I4
tp2067
a(Vdeclaring minors
(lp2068
Vdidn declare information science minor senior year usuall
p2069
aVsimilar https www youtube com watch v ydid hkcmd
p2070
aS'2014,08,19'
I3
tp2071
a(Visps ithaca lansing
(lp2072
Vwell say like choice providers lived near ho
p2073
aS'2014,08,13'
I3
tp2074
a(Vvisiting campus
(lp2075
Vshort line bus route ithaca nyc runs pretty regularly
p2076
aVrecommendations d suggest using search bar subreddit
p2077
aS'2014,08,12'
I3
tp2078
a(Vdining hall calories
(lp2079
Vmight wrong think nutritional information might available o
p2080
aVyeah thought saw menu like thing somewhere
p2081
aVnope dining halls buffet style food changes nightly ll
p2082
aValways request help chef manager question
p2083
aVgoing cornell smart enough estimate hon
p2084
aS'2014,08,01'
I2
tp2085
a(Vfinancial aid question
(lp2086
Vshouldn matter much long sent correct documents
p2087
aVahh thanks reply makes feel better
p2088
aS'2014,07,12'
I3
tp2089
a(Vclosest tcat bus place
(lp2090
Vsomeone else may correct m familiar cayu
p2091
aVyes stops right corner tareyton rose hill tcat bu
p2092
aVheard come around area true also didn
p2093
aVaccording tcat website looks like one buses
p2094
aValso taxi service ithaca bars close
p2095
aVyeah good taxi service exists least usually
p2096
aVbiking cayuga heights cornell bad months year
p2097
aVhey guys thanks help far one last question whether
p2098
aS'2014,06,13'
I3
tp2099
a(Vinformation required c c executive coach new york ithaca
(lp2100
Vrode c c plenty times unless rules changed sho
p2101
aVlimits luggage best way travel
p2102
aS'2014,05,17'
I4
tp2103
a(Vsoccer cornell
(lp2104
Vlink ithaca united soccer club http ithacasoccer com summer outdoo
p2105
aVunderstand grad student usually won much time ha
p2106
aS'2014,05,13'
I3
tp2107
a(Vundergraduates aem major
(lp2108
Vvarsity athlete
p2109
aVhigh school level bc play high school varsity soccer co captain
p2110
aVsorry port attempt joke lot varsity athletes h
p2111
aVaem
p2112
aVcollege level doofus
p2113
aVtypes people aem typically aren type seriously browse
p2114
aVdeleted
p2115
aVre nys aem cals discounted m aem d
p2116
aVdeleted
p2117
aVcals along humec ilr receive substantial amount state money
p2118
aS'2015,04,18'
I2
tp2119
a(Vparking passes
(lp2120
Vable purchase time year unless th
p2121
aVthink worth get sc permit b permit
p2122
aVmainly central campus absolutely
p2123
aS'2015,04,17'
I2
tp2124
a(Vbedroom available downtown apartment cornell grad students preferred sublet full lease
(lS'2015,04,16'
I2
tp2125
a(Vincoming grad student dog looking housemates
(lS'2015,04,16'
I2
tp2126
a(Vquestion hurlburt ecology house
(lp2127
Vended living sophomore year housing lottery mess m
p2128
aVinteresting hearing somebody misplaced semi person
p2129
aVsomeone made point ve never lived anywhere else campus
p2130
aVgreat question also incoming student interested eco
p2131
aVthink program houses great developing community feel lo
p2132
aVworries thread hijacking d like kind input includ
p2133
aVlived freshman sophomore years loved interior p
p2134
aVsorry following seems bit disjointed replied paragraph para
p2135
aVpeople mice rats d definitely find comradere
p2136
aS'2015,04,14'
I2
tp2137
a(Vfreshmen risley mind answering questions showing around th th
(lp2138
Vm risley location close classes louie lunch
p2139
aS'2015,04,14'
I2
tp2140
a(Vcould anyone part mcfns program help
(lp2141
Vcurrently program hours doesn become requirement unt
p2142
aVfeel free contact questions
p2143
aS'2015,04,02'
I2
tp2144
a(Vcomp arch vs operating systems
(lp2145
Vanswer questions specifically haven already che
p2146
aVquite friends take simultanteously heard os wi
p2147
aVplanning taking os practicum well haven taken comp ar
p2148
aS'2015,03,14'
I2
tp2149
a(Vintro macro micro
(lp2150
Vwissink micro class one best classes ever took cornell
p2151
aVdepends professor micro uses math macro helps
p2152
aVbasu macro econ finance major looking learn someth
p2153
aVthanks input weren seats open micro decision w
p2154
aVwell taught wissink bored death find
p2155
aS'2015,01,15'
I2
tp2156
a(Vgrades still posted
(lp2157
Vdeadline grades writing seminars doesn seem enforced
p2158
aVdoubt ll days d put gpa aste
p2159
aVone professors said absolute last date grades actually janua
p2160
aVreally need grade asap would contact writing sem instruct
p2161
aS'2014,12,28'
I2
tp2162
a(Vmental health productivity web app college students
(lS'2014,12,23'
I0
tp2163
a(Vdelivering packages residents hilc
(lp2164
Vcampus
p2165
aVhigh schooler limited knowledge college ithaca
p2166
aVcome campus drop people rpcc mail desk
p2167
aVeven without room number sweet ll check
p2168
aVtry people searching student listed dorm room
p2169
aVcould ask parents
p2170
aS'2014,12,14'
I2
tp2171
a(Vpublic talk imperialism world wars twentieth century thursday pm schwartz center
(lS'2014,11,17'
I2
tp2172
a(Vneed transfer schools
(lp2173
Vdeleted
p2174
aVwanted hear somebody done
p2175
aVtalk one academic advisors http cornel
p2176
aVdeleted
p2177
aVm sure frustrating fair already schoo
p2178
aS'2014,11,12'
I3
tp2179
a(Vdsoc
(lp2180
Vmuch work recall quite interesting terms
p2181
aS'2014,11,03'
I2
tp2182
a(Vhigh school senior visiting cornell
(lp2183
Vsomeone used work directly admissions tell
p2184
aVpeople told would help admissions officers remembered
p2185
aVfyi cornell freaking tiny sure big compared adm
p2186
aVwant information pep band check www bigredbands
p2187
aVdeleted
p2188
aVinstrument play also sit class vi
p2189
aVm engineering physics major play wind symphony cuwinds com
p2190
aVpage class schedules see go wh
p2191
aVcheck new classes https classes cornell edu browse roster fa p
p2192
aVyes https classes cornell edu browse roster fa semester
p2193
aVthanks page m planning go physics lecture today w
p2194
aVawesome enjoy lecture maybe ll see way discussio
p2195
aVah ok high school things obviously different wasn sure loo
p2196
aS'2014,10,18'
I4
tp2197
a(Vhey guys top free reservable room small club meetings
(lp2198
Vlink meeting rooms http registrar sas cornell edu sch
p2199
aVlifesaver
p2200
aS'2014,10,07'
I2
tp2201
a(Vapply dyson undergrad
(lp2202
Vapplied economics management major college agriculture
p2203
aVthanks lot
p2204
aS'2014,10,04'
I2
tp2205
a(Vcrescent parking lot get filled day
(lp2206
Vget usually find spot lunch usuall
p2207
aVsecond gotten considerable worse past years due
p2208
aS'2014,09,26'
I2
tp2209
a(Vplace buy get paint campus
(lp2210
Vdeleted
p2211
aVgood suggestion paint priced fairly well
p2212
aVhmmm think still try cornell store know ve seen art
p2213
aVart supply store think near bottom east seneca st
p2214
aVwalk risley hall start asking random people get thei
p2215
aS'2014,09,17'
I2
tp2216
a(Vbenefit getting cs credit rather paid
(lp2217
Vnone
p2218
aVgraded pass fail graded use gpa boost
p2219
aS'2014,09,08'
I2
tp2220
a(Vrecommend places studying safety belongings
(lp2221
Vtechnically always risk belongings getting stolen build
p2222
aVundergrad used like study uris library stacks although
p2223
aS'2014,09,02'
I2
tp2224
a(Vcornell pros cons
(lp2225
Vcornell top school computer science engineering possibly
p2226
aVone biggest cons actually weather well lo
p2227
aVcouple potentially seeing sun months time think
p2228
aVpros wonderful university praised potential employers good job
p2229
aVstudent actively trying fuck happens really sa
p2230
aVpeople like purposefully helping others hw arguing profe
p2231
aVagree
p2232
aVdeleted
p2233
aVve found also depends major college humec example much
p2234
aS'2014,08,28'
I3
tp2235
a(Vmichiganders cfb lovers looking football watching friends fall specifically msu
(lp2236
Vyes msu alum pm
p2237
aVgo blue
p2238
aVhate loving way possible
p2239
aVdeleted
p2240
aVuncle joes
p2241
aS'2014,08,24'
I2
tp2242
a(Vswitching cs discussion sections
(lp2243
Vgenerally one cares cs section show long one v
p2244
aVask cs facebook page somebody ta d class probably
p2245
aVpage
p2246
aS'2014,08,24'
I2
tp2247
a(Vengineering internships recruitment
(lp2248
Vengineering career services actually pretty great internships jobs w
p2249
aVthank info cornell definitely first choice
p2250
aVinfo bit dated engineering co op program great cert
p2251
aVthanks really helpful
p2252
aVeasy get internships jobs cs ee major pretty much ever
p2253
aVthanks info definitely expecting anyone hold hand
p2254
aVeveryone knew wanted internship got one learn imp
p2255
aVwent conference last year freshman huge career fair ev
p2256
aVcornell overrated ivies really take engineering programs seri
p2257
aVactually looking georgia tech undeniably great school
p2258
aS'2014,08,23'
I2
tp2259
a(Vnew ezrahub like forum
(lp2260
Vm original author cornell hub ezra hub etc perm
p2261
aVwell r cornell default geeds geeds geeds sloots omg bro fi
p2262
aVyeah reddit one know
p2263
aS'2014,08,21'
I2
tp2264
a(Vmuch first semester
(lp2265
Vdeleted
p2266
aVchinese really bad know probably harder indo european
p2267
aVwouldn say chinese hard definitely time consuming y
p2268
aVwould recommend ton reasons questi
p2269
aVm current undergrad context fws vary wildly time commitm
p2270
aVthanks thorough response good know option o
p2271
aVtaking honors courses two subjects considering majoring
p2272
aVask ask counselor bunch campus ask ra
p2273
aS'2014,08,17'
I2
tp2274
a(Vanyone taken sysen
(lS'2014,08,12'
I2
tp2275
a(Vincoming junior transfer questions
(lp2276
Vunderstand cals may well switch en
p2277
aVunderstand cals yeah definitely rushed throug
p2278
aVyes spring semester junior year would latest starting point want
p2279
aVgraduated cornell years ago cs department informati
p2280
aVm much recent graduate engineering college minors
p2281
aVhey graduated cals info sci program transfer mysel
p2282
aVinternal transfer peer mentor strongly recommend emai
p2283
aS'2014,08,09'
I1
tp2284
a(Vecology house
(lp2285
Vlived eco house freshman year loved get
p2286
aValso lived eco house freshman year also ans
p2287
aVactually finished spending month living suite style dorm
p2288
aVlived couple years fire ll probably hear
p2289
aVsuspension bridge sounds cool
p2290
aVhaven lived decent building relatively long walk
p2291
aVlong walks okay mean exercise isn worst thing w
p2292
aVgood pack good winter clothing though inches
p2293
aVlived freshman year want make assumpti
p2294
aVseems big thing eco house far away p m okay
p2295
aS'2014,08,09'
I2
tp2296
a(Vcredits one semester
(lp2297
Vwouldn take project courses ok end
p2298
aVdeleted
p2299
aVyes sort project course e project heavy afai
p2300
aVcommon load units engineering students knew took
p2301
aVthank reply practicum db requires c haven done ma
p2302
aVdeleted
p2303
aVyes built applets using java back c still use
p2304
aVdeleted
p2305
aVthanks bro
p2306
aVcould send professor email see much experience expect
p2307
aVbtw credits one semester respect
p2308
aVmeh sometimes credits tell full workload toughest semester
p2309
aVgoal graduating early retrospect wish
p2310
aVdecent learning rules financial accounting breeze
p2311
aVyup won easy semester sure financial accounting frist man
p2312
aS'2014,08,08'
I2
tp2313
a(Vfuture transfer student looking advice
(lp2314
Vhonest advice would let first year uc san diego start p
p2315
aVyes yes yes first weather sd amazing living
p2316
aVpretty much agree mr drunk guy says ve gotten
p2317
aVseems like re pretty smart study hard first year
p2318
aVknow love cornell ton better schools w
p2319
aS'2014,08,07'
I1
tp2320
a(Vaverage gpa cals transfers
(lp2321
Vapply gpa one measure several hundred thousand
p2322
aVgpa one measure several hundred thousand potential reasons
p2323
aVgraduated cals pretty consistent semester
p2324
aVgpa relative would high end cornell engineering
p2325
aVm statistics biology major current school statistics
p2326
aVve got nothing worry
p2327
aVfine gpa transferred bio cals
p2328
aS'2014,07,29'
I2
tp2329
a(Vfreshman writing credit
(lp2330
Vbelieve get taking one semester worth fws
p2331
aVcase cornell really wants freshman swim
p2332
aVstill took one fws
p2333
aVknow arts sciences get placement one class
p2334
aVthank list credit way clearer list cals sent
p2335
aVwould still make sure check cals ap policy re
p2336
aVcals placed freshman writing seminars
p2337
aVre engineer use one fws libera
p2338
aVknow current information website https apstu
p2339
aS'2014,06,23'
I2
tp2340
a(Vprospective transfer cornell cs
(lp2341
Vanswer cs questions particular cornellian living
p2342
aVthanks ll hit decide transfer
p2343
aVidea course requirements transferring since
p2344
aVphysics writing requirement college engineering sorry
p2345
aVm current jhu student ithaca m research cornell
p2346
aS'2014,06,22'
I2
tp2347
a(Vlost copy airborne twinkie anyone copy
(lp2348
Voh used ll look around
p2349
aVthanks wife sad couldn find
p2350
aVfound moving today still interested
p2351
aVabsolutely thought hadn found
p2352
aVwat
p2353
aValbum last call last decade
p2354
aS'2014,05,28'
I2
tp2355
a(Vanyone know place near campus pitch tent five days
(lp2356
Vmaybe guy overpriced housing let crash
p2357
aVfound craigslist ll rent tent night http itha
p2358
aVsold http images craigslist org gnjxoxvltsv x jpg
p2359
aVcould sleep one couches duffield shower kimball
p2360
aVmake couch surfing profile ask people probably get
p2361
aVairbnb lists sublet night although housing gets extremely booked
p2362
aS'2014,05,13'
I2
tp2363
a(Vwaitlist admissions
(lp2364
Voffered immediate admission instead guaranteed transfer opti
p2365
aVthanks advice send update letter letter intent
p2366
aVhate downer may want consider backup last
p2367
aVseems lot people saying ll sure mull th
p2368
aVtransferred remember process complicat
p2369
aVgot wait list think happened late may d
p2370
aVthanks reply yeah cycle crazy definitely stressed
p2371
aVhey know re feeling kinda completely give
p2372
aVyeah ll take
p2373
aVdeleted
p2374
aVended getting fedex sometime june told
p2375
aS'2014,04,28'
I2
tp2376
a(Vtransfer student hoping apply need advice
(lp2377
Vwould say apply fall finish degree fall find
p2378
aS'2015,04,23'
I1
tp2379
a(Vwondering chem organic chem
(lp2380
Vtake one non premed programs instead took bioengineering
p2381
aVoh god unless need interested orgo take baby orgo
p2382
aVm planning going phd honest really need ri
p2383
aS'2015,04,22'
I1
tp2384
a(Vmen soccer cornell
(lp2385
Vnobody cares soccer team teams lacrosse hockey
p2386
aVknow recruitment process tough
p2387
aS'2015,04,12'
I1
tp2388
a(Vadvice accepted transfer ilr
(lp2389
Vtransfer fall entire experience quite whirlwind
p2390
aVthank okay makes say whirlwind classes real
p2391
aVpreviously gone small liberal arts college transition
p2392
aVwest campus right choice might put schuyler house
p2393
aVilr guaranteed transfer senior sniff let know hav
p2394
aVthank helpful choose join greek life fri
p2395
aVchose join greek life lot friends met pe
p2396
aVthank much information helpful much f
p2397
aVcourses require lot reading others hard put
p2398
aS'2015,04,09'
I1
tp2399
a(Vnew grad student also looking roommate
(lS'2015,04,07'
I1
tp2400
a(Vtransferring freshman year
(lp2401
Vhonestly sense write yo
p2402
aVya m absolutely trying voice across prompt tell us wha
p2403
aVanswer prompt convincingly work details cornell unique
p2404
aVbelieve engineering program takes ridiculously low number transfer
p2405
aVwow know acceptance rate engineering transfers
p2406
aVwell m sure data specific acceptance rates sch
p2407
aVwow didn realize low u finding stats also
p2408
aVdata number applicants got data cornell p
p2409
aS'2015,03,02'
I2
tp2410
a(Vquestions campus transportation
(lp2411
Vwell let take one time say lot thing
p2412
aValright positive response actually help thanks
p2413
aVstay cost within day last final vacate
p2414
aVcampus campus bus ithaca cornell club manhattan nice
p2415
aS'2015,02,27'
I1
tp2416
a(Vanyone returning albany feb break
(lp2417
Vmu ep status
p2418
aS'2015,02,04'
I1
tp2419
a(Vprospective transfer cornell sha
(lp2420
Vinternal transfer engineering school believe ma
p2421
aVyeah true m competing best best referrin
p2422
aVyes correct quite lot hotel students days go
p2423
aVdegree program applying classes taken
p2424
aVd like go finance management area concentration within
p2425
aVone major suggestion would really look hotel administration
p2426
aVyeah figured would essay interview really show wh
p2427
aVsure d happy help questions may transferred
p2428
aVyay love talking hotel school first good
p2429
aVthing far haven really much experience hosp
p2430
aS'2015,01,08'
I0
tp2431
a(Vbursar bill errors
(lp2432
Vdeleted
p2433
aVpretty terrible still linking sallie may doesn run sit
p2434
aS'2015,01,07'
I1
tp2435
a(Vchem case
(lp2436
Vtook years ago read book studied able place
p2437
aVdang test might changed long ago remember
p2438
aVreally remember sorry also taken chemistry since th
p2439
aVahh see thanks though
p2440
aS'2014,12,28'
I1
tp2441
a(Vhelp arts sciences requirements please
(lp2442
Vgraduation cas http cornell edu academics degree req cfm c
p2443
aVtake something fun unfamiliar life short shoot require
p2444
aS'2014,12,14'
I1
tp2445
a(Vneed help cals cas students
(lp2446
Vminor pretty much anything offered university computer
p2447
aVwoah thanks incredibly detailed response helped substantially
p2448
aVaddition u heraclitusz said applying ess env
p2449
aVess happens exactly applying good know f
p2450
aS'2014,12,14'
I1
tp2451
a(Vcs professors leaving cornell
(lS'2014,12,13'
I1
tp2452
a(Vforgot set interview hotel administration
(lp2453
Vsounds like best plan call hotel administration office personal
p2454
aVinterviews done alumnus lives near call admissions b
p2455
aVthanks replies everyone sha approved interview request wish m
p2456
aVapplied last year school architecture art planning d
p2457
aS'2014,11,09'
I1
tp2458
a(Vschedulizer chequerd alternatives
(lp2459
Vbeta coursepad new one works spring run
p2460
aVbeautiful
p2461
aVamazing thank
p2462
aVtry using chequerd term set spring times c
p2463
aVhttps classes cornell edu browse roster sp good gets right
p2464
aVgo old school draw end
p2465
aS''
aVdeleted
p2466
aVyeah owe world
p2467
aS'2014,10,28'
I1
tp2468
a(Vanyone taken orie
(lp2469
Vdepends professor talking anyway stru
p2470
aVgood point thanks much needed candidness problem
p2471
aS'2014,10,27'
I1
tp2472
a(Vquestion regarding admissions
(lp2473
S''
aVway
p2474
aVzero effect
p2475
aVworry think university world requires b
p2476
aVm oddball ny didn take sat act decided
p2477
aS'2014,10,22'
I1
tp2478
a(Vuse online storage computing lab computers
(lp2479
Vtl dr yes set application save location cloud storage
p2480
aS'2014,10,04'
I1
tp2481
a(Vsince looking fellow gamers anyone aoe hd like steam still super fun big community steam voobly
(lp2482
Vget massive civ game going d cool
p2483
aVmight never played civ multiplayer take su
p2484
aVd rather civ really game civ netcode abysmal basically
p2485
aVm terribly good though
p2486
aS'2014,09,15'
I1
tp2487
a(Vship box full items usps store cornell store
(lp2488
Vups store college ave dryden
p2489
aVre extra super helpful would spend lots money ship
p2490
aVsure looks like http store cornell edu postmarket aspx
p2491
aVpretty sure think ll need get boxes whatnot
p2492
aS'2014,09,08'
I1
tp2493
a(Vconsidering cs statistics courses
(lp2494
Vacsu http acsu cornell edu w index php main page
p2495
aVthank much
p2496
aVtaking purely interest cs stsci orie minor major
p2497
aVthanks
p2498
aVdeleted
p2499
aVwell respected pretty universal afaik regards losi
p2500
aS'2014,08,21'
I1
tp2501
a(Vcourse load estimates
(lp2502
Vdepends course load credit class effortless dra
p2503
aVcs engineering think missed question estimate inclu
p2504
aVve taken cs class hr week commitment another hr week
p2505
aVdeleted
p2506
aVm sure cornell functional programming pretty
p2507
aVthanks interesting summary quick question graduating three ye
p2508
aVgraduating three years cs stretch unless whole shitton
p2509
aVtaking number classes towards upper limit see
p2510
aVnope never academic credits wouldn want w
p2511
aVdeleted
p2512
aVreason understood get exposed academics th
p2513
aVdeleted
p2514
aVthanks tips re right thinking phd simply ne
p2515
aVdepends many friends cs three years
p2516
aVsee impression overloading classes really frowned upon
p2517
aVinclude class time credit hrs outside class work ex
p2518
aVah looking someone interested bunch activiti
p2519
aVawesome four years
p2520
aVreally depends taking fws take hours depending
p2521
aVperfectly honest never took guidelines seriously except top
p2522
aS'2014,06,27'
I1
tp2523
a(Vquestion admission process
(lp2524
Vwould send scores would really disappointing applicat
p2525
aVsend scores
p2526
aVthanks anyway could tell pros cons sending scores vs
p2527
aVrequired send won even considered send
p2528
aVisn true never took sat subject tests still accepted
p2529
aVsomeone worked folks read applications past
p2530
aVsend scores regardless ap achievement subject areas
p2531
aS'2015,02,18'
I0
tp2532
a(Vlot questions cornell especially dyson see description
(lp2533
Vstudents stereotype dyson aem students
p2534
aVthank much massive answer detailed heplful
p2535
aVstudents stereotype dyson aem students yes g
p2536
aVsounds pretty good thanks answers
p2537
aVstudents stereotype dyson aem students yes par
p2538
aVthanks heaps help
p2539
aVaem wide range stereotype least engineers
p2540
aVthanks
p2541
aVre welcome aem majors absolutely disagree reply m ju
p2542
aS'2015,01,18'
I0
tp2543
a(Vbest thing professor done
(lp2544
Vlast final second semester may professor said senior
p2545
aVgave job lab hour let work summers put name
p2546
aS'2014,12,27'
I0
tp2547
a(Vtcat stops campus rd hoy rd
(lp2548
Vyes answer question hate tcat website terrible r
p2549
aVthanks saw stop shown campus rd hoy rd st
p2550
aVhasbrouck apts closest official stop m sure signs betw
p2551
aVhttp tcat nextinsight com web search next time
p2552
aS'2014,12,22'
I0
tp2553
a(Vcornell ranked among top universities tilt snoop competition
(lp2554
Valready cornell
p2555
aS'2014,10,13'
I0
tp2556
a(Vdota players
(lp2557
Vhttp steamcommunity com groups cornelld
p2558
aVawesome thank
p2559
aVthanks
p2560
aS'2014,09,02'
I0
tp2561
a(Vneed help cornellian
(lp2562
Vapply ed definitely decent shot would definitely recomm
p2563
aVthanks quick response quick follow dont mind ha
p2564
aVm sure would appreciate letting know feel
p2565
aVcould write extra letter cornell others explain w
p2566
aVthanks advice
p2567
aVdeleted
p2568
aVthanks response
p2569
aVcannot apply ed anywhere due highly unfortunate circumstances wil
p2570
aVwell important note school within cornell applying
p2571
aVcollege particular hoping attend
p2572
aVart science
p2573
aVdeleted
p2574
aVmean like college within cornell ie engineering arts sciences
p2575
aS'2014,08,26'
I0
tp2576
a(Vway change blocking assignment
(lp2577
Vwait rooms switch
p2578
aVguess could kind wierd though d switch keys
p2579
aVgo housing tell want switch say
p2580
aVre adult read housing contract signed contact th
p2581
aVthanks boss
p2582
aS'2015,04,06'
I0
tp2583
a(Veasy core hotel school courses
(lp2584
Veasy core courses hotel school um
p2585
aVaccording friends hotel school one failed courses f
p2586
aVconfirm hotelie girlfriend time lost shit class
p2587
aVfinancial accounting hard business computing
p2588
aVve gathered hotelie friend neither hard per say b
p2589
aVtl dr re core courses take regardless y
p2590
aS'2015,01,08'
I0
tp2591
a(Vtips transferring cornell engineering
(lp2592
Veasy get around without car students walk around campus th
p2593
aVyeah think decent potential get dont think cornell
p2594
aS'2014,12,12'
I0
tp2595
a(Vap spanish lang credit used satisfy liberal arts requirement engineering
(lp2596
Vbelieve yes quick search make sure according en
p2597
aVcornell could find writing mak
p2598
aVtalk academic advisor know rules also bend
p2599
aS'2014,11,11'
I0
tp2600
a(Vadd print takenote online version
(lS'2014,11,09'
I0
tp2601
a(Vhelp current junior find apartment next year
(lp2602
Vknow people looking pretty tough ask people re living wit
p2603
aVyeah m interested message sent
p2604
aVabsolutely start looking good places gone b
p2605
aVrandom thoughts lived collegetown housing market twi
p2606
aVthanks tips would suggest ask people people
p2607
aS'2014,09,03'
I0
tp2608
a(Vtrue false assumptions cornell university
(lp2609
Vlie died last semester
p2610
aVrip
p2611
aVbleh self adulation hate shit like
p2612
aS'2015,04,07'
I0
tp2613
a(Vcheap gre prep books
(lp2614
Vtake look ebay hard sell
p2615
aVthanks mate thought d give classmates quick cheap w
p2616
aVsent pm
p2617
aVwait studied gre haha schools dont even care
p2618
aS'2015,01,17'
I0
tp2619
a(Vopinions needed desperately
(lp2620
Vtell truth sat scores low
p2621
aVyep another guy posted days ago scores sat
p2622
aVagree sat scores low environmental stuff outside
p2623
aVthanks ll try make essays good environmental sci promp
p2624
aVelaborate environment experience leave personal stuff commo
p2625
aVthanks reply m going try raise sats
p2626
aVthank m planning retake january raise th
p2627
aVcornell asks see part look
p2628
aValso take act like sciences sounds like
p2629
aS'2014,12,23'
I0
tp2630
a(Vinterview scott morris ithacash x post r ithaca
(lS'2014,11,23'
I0
tp2631
a(Vutilities collegetown
(lp2632
Vreally depends size apartment house much heat use
p2633
aVcheapest fairly sizeable house ever got around per person
p2634
aVnyseg last month live alone lots electronics th
p2635
aS'2014,08,31'
I0
tp2636
a(Veasy history classes
(lp2637
Vm m sure fulfills requirement hist
p2638
aVhistory courses cornell easy easy defined pag
p2639
aVancient egyptian history course covered two requirements wasn ridicu
p2640
aVknow still offered back looking satisfy si
p2641
aVeasy history rock music fun interesting
p2642
aVcakewalk listening assignments reading
p2643
aS'2014,08,25'
I0
tp2644
a(Vharrison ford town
(lp2645
Vireland
p2646
aVwasn injured production http rewind com news harri
p2647
aVinjured back walking cast cane crutches edit sp
p2648
aVdriving around stewart st yesterday maybe
p2649
aS'2014,08,01'
I0
tp2650
a(Vlooking cornell students help start campus pursuit treasure hunt cornell university
(lp2651
Vsorts time commitment would require
p2652
aVwould working team students running treasure h
p2653
aS'2014,07,25'
I0
tp2654
a(Vviewing ap scores
(lp2655
Vstudentcenter cornell edu believe need netid already c
p2656
aVgotten netid access unfortunately doesn appear
p2657
aVgo transfer credit report drop case ha
p2658
aVone yes
p2659
aVhopefully haven updated yet
p2660
aVtransfer credit report mention aps taken previous years mine
p2661
aVproblem hope enjoy first year much
p2662
aVhear ap scores posted colleges class registration si
p2663
aVpretty much everyone know gotten scores really killin
p2664
aVscores cals students dust student center
p2665
aS'2014,06,26'
I0
tp2666
a(Vurgent need help
(lp2667
Valright thanks timely response guess accepted gg
p2668
aVstop truly want transfer cornell school
p2669
aS'2015,03,09'
I0
tp2670
a(Vbio hd majors kik
(lp2671
Vcheck http internaltransfer cornell edu successful transfers dunno
p2672
aS'2015,02,09'
I0
tp2673
a(Vcomputer science cornell
(lp2674
Vtake class college meet pre requisites h
p2675
aVm junior majoring cs good complaints answers
p2676
aVagree m cs senior elaborate cornell cs
p2677
aVtypo
p2678
aVthanks
p2679
aVcas college arts sciences
p2680
aS''
aVhard one hardest majors cornell along
p2681
aVcornell private job hunting site freshmen right looking fo
p2682
aVhttps cornell students experience com experience login netid cornell edu
p2683
aS'2015,01,18'
I0
tp2684
a(Vtransfer students
(lp2685
Vhonest truth colleges probably tell re really
p2686
aVthanks comment yeah browsing website compute
p2687
aVtheres also info sci program cals related may able
p2688
aVthings varns absolutely right experience resources
p2689
aVhonestly fuck
p2690
aVsay serious m assuming sneaky way get
p2691
aVbest students intellectual majors promising candid
p2692
aVcomputer science major engineering school transferred c
p2693
aS'2014,12,03'
I0
tp2694
a(Vadvice high school junior admissions cornell college agriculture life science
(lp2695
Vdisciplined apply good g
p2696
aVdisciplined fairly blessed natural intelligence
p2697
aVamen first choice
p2698
aVthink long improvement hope m admissions
p2699
aVthanks ll show guidance
p2700
aVm sure cals also make sure solid sat ii
p2701
aVcertainly commit early decision early commitment o
p2702
aValrighty goodluck hope afford years d
p2703
aVafford second major problem looking suny schools
p2704
aVgood point completely forgot cals suny great value
p2705
aVsuny land grant school cornell cals lot harde
p2706
aVawhile since worked common app isn optional se
p2707
aVsection add additional comments applicati
p2708
aVthink sections generally used extenuat
p2709
aVtalking admissions counselor application process
p2710
aVgpa trends fairly important gpa trending good thin
p2711
aVknow major applying cals general bit weird
p2712
aVthanks wants attend dental school afterwards biology h
p2713
aVson good sign involved parents way chance
p2714
aS'2014,11,18'
I0
tp2715
a(Vget pe
(lp2716
Vabsurd fun find something interests fencing
p2717
aVeven re athletic enjoy sports ton fun
p2718
aVthank provided useful response angrypurpleteddybear hav
p2719
aVthanks proving point
p2720
aVhahaha gold come back read comment ye
p2721
aVdefinitely waste know got rid program took
p2722
aVplenty fun free classes juggling anyone well reasonabl
p2723
aVtake day hiking great way get campus leaf peeping
p2724
aVlots cute girls archery also cute guys
p2725
aVpricey handgun safety trap skeet definitely th
p2726
aVpe classes worth
p2727
aVreally enjoyed squash swing dancing took classes knew woul
p2728
aVthink take full advantage different classes cornell
p2729
aVplenty free cheap classes check coe well
p2730
aVfun pe bowling later ballroom dance girl
p2731
aVtake archery one experiences remember fondly c
p2732
aVm afraid least found couple years ago good luck thoug
p2733
aVwaste especially already athletic sorry hear cornell
p2734
aS'2014,09,03'
I0
tp2735
a(Vchoose cornell
(lp2736
Vvisit spend day two wandering around see feels
p2737
aValso stress need visit schools re considering
p2738
aVgreat description one small note mit also land grant institution
p2739
aVcool thought u mass amherst appears mass
p2740
aVcornell mit two private land grants know becau
p2741
aVdeleted
p2742
aVthx
p2743
aVknow apply great fucking engineering pro
p2744
aVsure pretentious people maybe get o
p2745
aVmeant general observation universal truth stand
p2746
aVlol cornell highly overrated school especially engineering
p2747
aS'2014,08,26'
I0
tp2748
a(Vtrue anyone campus know real story
(lp2749
Vhttp www dailykos com story new video james o keefe
p2750
aVfriend mine works journalism directed james o keefe wiki
p2751
aVjames o keefe https
p2752
aVdeleted
p2753
aVm sure wrong link disappeared http w
p2754
aVdeleted
p2755
aVhttps www facebook com cornell posts
p2756
aVactually watch entire video edited angled d
p2757
aVtitle dean means practically nothing assistant dean stu
p2758
aVnarration video states dean talking prospective
p2759
aVbullshit absolute basis long story short o keefe know
p2760
aS'2015,03,25'
I0
tp2761
a(Vhelp fellow student
(lp2762
Vlooks pretty stellar
p2763
aVacademic stats good emphasize passionate mechanical en
p2764
aValright thanks comments hoping best corneli
p2765
aS'2015,02,24'
I0
tp2766
a(Vget adobe products like photoshop free
(lp2767
Vthepiratebay se campus wifi
p2768
aVdecent chance fine one campus wifi get warn
p2769
aVeducational discounts free unless department pay
p2770
aVlooking specifically photoshop use free program like
p2771
aVuse http www datafilehost com d c follow instruction
p2772
aS'2015,01,20'
I0
tp2773
a(Vimportant sat ii scores college agriculture life sciences
(lp2774
Vcals doesn require subject tests http cals cornell edu admissions
p2775
aVcase little different first took bio sat
p2776
aVm bioengineering major cornell also took physics sat ii go
p2777
aVm class likely majoring bee engineering considere
p2778
aS'2014,10,28'
I0
tp2779
a(Vtaking ap science high school
(lp2780
Vtaken ap
p2781
aVtook ap h community college classes junior year two business financ
p2782
aS'2014,09,30'
I0
tp2783
a(Vclever ways avoiding cornell legal branding nazis
(lp2784
Vsuppose could ask aren asking want
p2785
aVyes long term solution suppose hurt m also alum
p2786
aVblank cornell re something cornell apposed
p2787
aVwould name doesn fit well
p2788
aVm pretty sure anything long make sure
p2789
aVobvious workarounds kornell whatever llenroc whatever big red whatever
p2790
aVnote people hating hard ve taken e
p2791
aS'2014,09,21'
I0
tp2792
a(Vphysical books necessary asrc
(lS'2014,08,14'
I0
tp2793
a(Vcornell appeal rejection decision
(lp2794
Vwell make things worse appeal nothing happens yo
p2795
aS'2015,04,06'
I0
tp2796
a(Vcornell dean says islamic state welcome campus undercover video
(lp2797
Vstatement cornell president david j skorton president cornell
p2798
aVspeaking assistant dean scaffido convinced
p2799
aVstop watching obviously misleading editorialized videos ta
p2800
aS'2015,03,25'
I0
tp2801
a(Vbest easiest classes
(lp2802
Vaem marketing perosio eas oceanography bruce monger
p2803
aVdeleted
p2804
aVdeleted
p2805
aVdeleted
p2806
aVre cals op case cals people reading
p2807
aS'2015,02,03'
I0
tp2808
a(Vchance hotelie hopeful
(lp2809
Vhotelie looks great discern hotelie peers everyo
p2810
aVlooks great discern hotelie peers everyone suf
p2811
aVlooks good make sure focus cornell hotel compared places
p2812
aVthanks advice already sent application deadline
p2813
aS'2015,01,12'
I0
tp2814
a(Vfair shot
(lp2815
Vthink ve got great shot pretty identical resume got
p2816
aVtold historically high school ed significantly improved
p2817
aVyes
p2818
aVeverything better mine let said
p2819
aVway long since applied good resource opinions
p2820
aVm gonna jump agree guy thing op think
p2821
aVbest results come essay tutor
p2822
aS'2015,01,10'
I0
tp2823
a(Vland grant question
(lp2824
Vland grant college means university established bec
p2825
aVdisagree completely land grant current impacts cals f
p2826
aVm arguing historical impact land grant school
p2827
aVrelevant engineering said relevant uni
p2828
aVcornell statutory colleges funded state similar
p2829
aVclarify statutory colleges aren funded way sunys
p2830
aVreally relevant engineering program one pri
p2831
aVcertain school really help state means
p2832
aS'2014,12,24'
I0
tp2833
a(Vunique thing cornell school engineering cornell ivies
(lp2834
Vwriting college essay good luck
p2835
aVcornell real engineering school unlike ivies
p2836
aS'2014,12,02'
I0
tp2837
a(Vcornell architecture help
(lp2838
Vcheck stated admissions site
p2839
aVsays one requirements m sure ed absolutely
p2840
aVrequired ed means applying early
p2841
aVscrewed didn get scores sent regular deadline
p2842
aS'2014,10,23'
I0
tp2843
a(Vatm campus
(lp2844
Vtry checking m website atm locations alternatively
p2845
aVhm apparently one campus sucks know
p2846
aVbelieve one robert purcell community center second floor next
p2847
aVcalled m complain atm said one also
p2848
aS'2014,09,10'
I0
tp2849
a(Vbetter engineering cornell cs uwaterloo co op
(lp2850
Vcornell reasons
p2851
aVthanks lot comprehensive analysis
p2852
aVhmm okay ll reply sans smartass remark took
p2853
aVthanks help realize people different people
p2854
aS'2014,06,02'
I0
tp2855
a(Vwriters cornell get help
(lp2856
Vdebate program applying type program re app
p2857
aVkiller advice couldn say better
p2858
aVthank man really helps literally appreciate anymore haha
p2859
aS'2014,04,29'
I0
tp2860
a(Vprobably question admissions officer
(lp2861
Vadmissions officer know college plan applying
p2862
aVtake hardest classes possibly school work hard
p2863
aVtake classes prepare sat subject tests ke
p2864
aS'2014,04,28'
I0
tp2865
a(Vreally want play bloodborne
(lS'2015,04,11'
I0
tp2866
a(Vsocial media colon cancer
(lS'2015,01,19'
I0
tp2867
a(Vvegan college
(lS'2015,01,08'
I0
tp2868
a(Veasiest classes
(lp2869
Vbetter idea rush college isn fun games le
p2870
aS'2014,11,09'
I0
tp2871
a(Vlooking examples accepted freshman resumes preferably college engineering
(lp2872
Vdidn make resume applied gist name obj
p2873
aS'2014,04,30'
I0
tp2874
a(Vanyone share experience help others make smarter rental choices d love hear ithaca stories also would great going nyc summer jobs really meaningful project
(lS'2014,04,27'
I0
tp2875
a(Vm scared
(lp2876
Vdeleted
p2877
aVreal talk probably
p2878
aVilr relatively easy transfer consider optio
p2879
aVmatter give apply want go
p2880
aS'2014,11,12'
I0
tp2881
a(Vimportant information attending red white hockey
(lS'2014,10,18'
I0
tp2882
a(Vphysics textbook sale
(lp2883
Vdeleted
p2884
aVinternational edition won take
p2885
aS'2014,05,15'
I0
tp2886
a(Vmissed connection
(lS'2015,02,18'
I0
tp2887
a(Vwhite male catch wink central
(lp2888
Voh man locations women asian men black men indian
p2889
aS'2015,01,29'
I0
tp2890
a(Vfree perks cornell edu email address x post r college
(lp2891
Vshady hell looks like person going around college sub
p2892
aVlooks like hes trying get mind sumo referralls
p2893
aVdiscounts various microsoft software msdn
p2894
aVanyone know well checked still cornell email
p2895
aVdeleted
p2896
aVthink op promoting mindsumo
p2897
aS'2014,11,23'
I0
tp2898
a(Vmindsumo complete online projects mini internships get work experience win prizes
(lp2899
Vreally good bad
p2900
aS'2014,11,12'
I0
tp2901
a(Vred band better white band
(lS'2014,10,13'
I0
tp2902
a(Vlikelihood acceptance
(lp2903
Vadmissions punctuation blind ll fine
p2904
aVnice
p2905
aVtalk processor research something know ar
p2906
aVassuming fair dice rolls
p2907
aVd d d
p2908
aVd ll need d crits know right
p2909
aVliterally everywhere else undergraduate admissions crapshoot n
p2910
aVsat scores low
p2911
aVyes kind disappointed taking hopefully
p2912
aVlow sats white male chance getting accepted college eng
p2913
aVd say re super strong candidate def possible get
p2914
aVwent cornell years ago things may changed experie
p2915
aVreach possible give shot lose
p2916
aS'2014,08,09'
I0
tp2917
a(Vedu address make hour promo code dollars
(lp2918
Vlet guess view mindsumo com campus ip address testimon
p2919
aVlooked actually way make get
p2920
aVyeah waste time
p2921
aVguys persistent see almost every college subreddit
p2922
aS'2014,12,17'
I0
tp2923
a(Vcornell private university always wondered cornell alums pissed
p2924
(lp2925
Vdumb attempt failed troll
p2926
aVyes
p2927
aVdownvote definitely yes
p2928
aVdefinitely definitely yes
p2929
aVwould
p2930
aVknow m cornell undergrad johnson mba grad ca
p2931
aVeven understand troll one posts yeah failed
p2932
aS'2014,10,08'
p2933
I0
tp2934
a.